ARM GAS  C:\Users\LUCASI~1\AppData\Local\Temp\ccimDKy2.s 			page 1


   1              		.syntax unified
   2              		.cpu cortex-m3
   3              		.fpu softvfp
   4              		.eabi_attribute 20, 1
   5              		.eabi_attribute 21, 1
   6              		.eabi_attribute 23, 3
   7              		.eabi_attribute 24, 1
   8              		.eabi_attribute 25, 1
   9              		.eabi_attribute 26, 1
  10              		.eabi_attribute 30, 1
  11              		.eabi_attribute 34, 1
  12              		.eabi_attribute 18, 4
  13              		.thumb
  14              		.syntax unified
  15              		.file	"edgeSensorApp.c"
  16              		.text
  17              	.Ltext0:
  18              		.cfi_sections	.debug_frame
  19              		.section	.text.echoInt1_handler,"ax",%progbits
  20              		.align	2
  21              		.global	echoInt1_handler
  22              		.thumb
  23              		.thumb_func
  24              		.type	echoInt1_handler, %function
  25              	echoInt1_handler:
  26              	.LFB65:
  27              		.file 1 "..\\..\\..\\3semesterProjekt_repository\\Ultrasoundv2\\Ultrasoundv2.cydsn\\edgeSensorApp.
   1:..\..\..\3semesterProjekt_repository\Ultrasoundv2\Ultrasoundv2.cydsn/edgeSensorApp.c **** #include "edgeSensorApp.h"
   2:..\..\..\3semesterProjekt_repository\Ultrasoundv2\Ultrasoundv2.cydsn/edgeSensorApp.c **** 
   3:..\..\..\3semesterProjekt_repository\Ultrasoundv2\Ultrasoundv2.cydsn/edgeSensorApp.c **** volatile uint32_t pulseWidth;
   4:..\..\..\3semesterProjekt_repository\Ultrasoundv2\Ultrasoundv2.cydsn/edgeSensorApp.c **** volatile int time_us;
   5:..\..\..\3semesterProjekt_repository\Ultrasoundv2\Ultrasoundv2.cydsn/edgeSensorApp.c **** volatile int e1 = 0, e2 = 0, e3 = 0, e4 = 0;
   6:..\..\..\3semesterProjekt_repository\Ultrasoundv2\Ultrasoundv2.cydsn/edgeSensorApp.c **** volatile int status = 0;
   7:..\..\..\3semesterProjekt_repository\Ultrasoundv2\Ultrasoundv2.cydsn/edgeSensorApp.c **** 
   8:..\..\..\3semesterProjekt_repository\Ultrasoundv2\Ultrasoundv2.cydsn/edgeSensorApp.c **** CY_ISR(pulseInt_handler)
   9:..\..\..\3semesterProjekt_repository\Ultrasoundv2\Ultrasoundv2.cydsn/edgeSensorApp.c **** {
  10:..\..\..\3semesterProjekt_repository\Ultrasoundv2\Ultrasoundv2.cydsn/edgeSensorApp.c ****     triggerPWM_Stop();
  11:..\..\..\3semesterProjekt_repository\Ultrasoundv2\Ultrasoundv2.cydsn/edgeSensorApp.c ****     //Reads number of counts in pulse
  12:..\..\..\3semesterProjekt_repository\Ultrasoundv2\Ultrasoundv2.cydsn/edgeSensorApp.c ****     pulseWidth = pulseCounter_ReadCapture();
  13:..\..\..\3semesterProjekt_repository\Ultrasoundv2\Ultrasoundv2.cydsn/edgeSensorApp.c ****     //Converts data to an integer of us
  14:..\..\..\3semesterProjekt_repository\Ultrasoundv2\Ultrasoundv2.cydsn/edgeSensorApp.c ****     time_us = (uint32_t)pulseWidth * 2; 
  15:..\..\..\3semesterProjekt_repository\Ultrasoundv2\Ultrasoundv2.cydsn/edgeSensorApp.c ****     
  16:..\..\..\3semesterProjekt_repository\Ultrasoundv2\Ultrasoundv2.cydsn/edgeSensorApp.c ****     //10 cm is 583us - currently set to 20cm
  17:..\..\..\3semesterProjekt_repository\Ultrasoundv2\Ultrasoundv2.cydsn/edgeSensorApp.c ****     if(time_us > 1196)
  18:..\..\..\3semesterProjekt_repository\Ultrasoundv2\Ultrasoundv2.cydsn/edgeSensorApp.c ****     {
  19:..\..\..\3semesterProjekt_repository\Ultrasoundv2\Ultrasoundv2.cydsn/edgeSensorApp.c ****         status = status + 1;
  20:..\..\..\3semesterProjekt_repository\Ultrasoundv2\Ultrasoundv2.cydsn/edgeSensorApp.c ****     }
  21:..\..\..\3semesterProjekt_repository\Ultrasoundv2\Ultrasoundv2.cydsn/edgeSensorApp.c ****     
  22:..\..\..\3semesterProjekt_repository\Ultrasoundv2\Ultrasoundv2.cydsn/edgeSensorApp.c ****     switch (status)
  23:..\..\..\3semesterProjekt_repository\Ultrasoundv2\Ultrasoundv2.cydsn/edgeSensorApp.c ****     {
  24:..\..\..\3semesterProjekt_repository\Ultrasoundv2\Ultrasoundv2.cydsn/edgeSensorApp.c ****         case 11:    //LED_Write(1);     //Forreste venstre sensor
  25:..\..\..\3semesterProjekt_repository\Ultrasoundv2\Ultrasoundv2.cydsn/edgeSensorApp.c ****                     DelayBased180Turn();
  26:..\..\..\3semesterProjekt_repository\Ultrasoundv2\Ultrasoundv2.cydsn/edgeSensorApp.c ****                 break;
  27:..\..\..\3semesterProjekt_repository\Ultrasoundv2\Ultrasoundv2.cydsn/edgeSensorApp.c ****         case 21:    //LED_Write(1);     //Venstre sensor
  28:..\..\..\3semesterProjekt_repository\Ultrasoundv2\Ultrasoundv2.cydsn/edgeSensorApp.c ****                     DelayBased90Turn(1);
  29:..\..\..\3semesterProjekt_repository\Ultrasoundv2\Ultrasoundv2.cydsn/edgeSensorApp.c ****                 break;
  30:..\..\..\3semesterProjekt_repository\Ultrasoundv2\Ultrasoundv2.cydsn/edgeSensorApp.c ****         case 31:    //LED_Write(1);     //Højre sensor
ARM GAS  C:\Users\LUCASI~1\AppData\Local\Temp\ccimDKy2.s 			page 2


  31:..\..\..\3semesterProjekt_repository\Ultrasoundv2\Ultrasoundv2.cydsn/edgeSensorApp.c ****                     DelayBased90Turn(2);
  32:..\..\..\3semesterProjekt_repository\Ultrasoundv2\Ultrasoundv2.cydsn/edgeSensorApp.c ****                 break;
  33:..\..\..\3semesterProjekt_repository\Ultrasoundv2\Ultrasoundv2.cydsn/edgeSensorApp.c ****         case 41:    //LED_Write(1);     //Forreste højre sensor
  34:..\..\..\3semesterProjekt_repository\Ultrasoundv2\Ultrasoundv2.cydsn/edgeSensorApp.c ****                     DelayBased180Turn();
  35:..\..\..\3semesterProjekt_repository\Ultrasoundv2\Ultrasoundv2.cydsn/edgeSensorApp.c ****                 break;
  36:..\..\..\3semesterProjekt_repository\Ultrasoundv2\Ultrasoundv2.cydsn/edgeSensorApp.c ****         default:    //LED_Write(0);
  37:..\..\..\3semesterProjekt_repository\Ultrasoundv2\Ultrasoundv2.cydsn/edgeSensorApp.c ****                     driveForwards();
  38:..\..\..\3semesterProjekt_repository\Ultrasoundv2\Ultrasoundv2.cydsn/edgeSensorApp.c ****                 break;
  39:..\..\..\3semesterProjekt_repository\Ultrasoundv2\Ultrasoundv2.cydsn/edgeSensorApp.c ****     }
  40:..\..\..\3semesterProjekt_repository\Ultrasoundv2\Ultrasoundv2.cydsn/edgeSensorApp.c ****     
  41:..\..\..\3semesterProjekt_repository\Ultrasoundv2\Ultrasoundv2.cydsn/edgeSensorApp.c ****     //Resetting variables
  42:..\..\..\3semesterProjekt_repository\Ultrasoundv2\Ultrasoundv2.cydsn/edgeSensorApp.c ****     getStatus();
  43:..\..\..\3semesterProjekt_repository\Ultrasoundv2\Ultrasoundv2.cydsn/edgeSensorApp.c ****     //Clear capture flag
  44:..\..\..\3semesterProjekt_repository\Ultrasoundv2\Ultrasoundv2.cydsn/edgeSensorApp.c ****     pulseCounter_ReadStatusRegister();
  45:..\..\..\3semesterProjekt_repository\Ultrasoundv2\Ultrasoundv2.cydsn/edgeSensorApp.c ****     triggerPWM_Start();
  46:..\..\..\3semesterProjekt_repository\Ultrasoundv2\Ultrasoundv2.cydsn/edgeSensorApp.c **** }
  47:..\..\..\3semesterProjekt_repository\Ultrasoundv2\Ultrasoundv2.cydsn/edgeSensorApp.c **** 
  48:..\..\..\3semesterProjekt_repository\Ultrasoundv2\Ultrasoundv2.cydsn/edgeSensorApp.c **** CY_ISR(echoInt1_handler)
  49:..\..\..\3semesterProjekt_repository\Ultrasoundv2\Ultrasoundv2.cydsn/edgeSensorApp.c **** {
  28              		.loc 1 49 0
  29              		.cfi_startproc
  30              		@ args = 0, pretend = 0, frame = 0
  31              		@ frame_needed = 0, uses_anonymous_args = 0
  32              		@ link register save eliminated.
  50:..\..\..\3semesterProjekt_repository\Ultrasoundv2\Ultrasoundv2.cydsn/edgeSensorApp.c ****     e1 = 1;
  33              		.loc 1 50 0
  34 0000 074B     		ldr	r3, .L3
  35 0002 0122     		movs	r2, #1
  36 0004 1A60     		str	r2, [r3]
  51:..\..\..\3semesterProjekt_repository\Ultrasoundv2\Ultrasoundv2.cydsn/edgeSensorApp.c ****     if((e1+e2+e3+e4) == 4 )
  37              		.loc 1 51 0
  38 0006 1968     		ldr	r1, [r3]
  39 0008 5A68     		ldr	r2, [r3, #4]
  40 000a 1144     		add	r1, r1, r2
  41 000c 9A68     		ldr	r2, [r3, #8]
  42 000e 0A44     		add	r2, r2, r1
  43 0010 DB68     		ldr	r3, [r3, #12]
  44 0012 1344     		add	r3, r3, r2
  45 0014 042B     		cmp	r3, #4
  46 0016 02D1     		bne	.L1
  52:..\..\..\3semesterProjekt_repository\Ultrasoundv2\Ultrasoundv2.cydsn/edgeSensorApp.c ****     {
  53:..\..\..\3semesterProjekt_repository\Ultrasoundv2\Ultrasoundv2.cydsn/edgeSensorApp.c ****         status = 10;
  47              		.loc 1 53 0
  48 0018 0A22     		movs	r2, #10
  49 001a 014B     		ldr	r3, .L3
  50 001c 1A61     		str	r2, [r3, #16]
  51              	.L1:
  52 001e 7047     		bx	lr
  53              	.L4:
  54              		.align	2
  55              	.L3:
  56 0020 00000000 		.word	.LANCHOR0
  57              		.cfi_endproc
  58              	.LFE65:
  59              		.size	echoInt1_handler, .-echoInt1_handler
  60              		.section	.text.echoInt2_handler,"ax",%progbits
  61              		.align	2
ARM GAS  C:\Users\LUCASI~1\AppData\Local\Temp\ccimDKy2.s 			page 3


  62              		.global	echoInt2_handler
  63              		.thumb
  64              		.thumb_func
  65              		.type	echoInt2_handler, %function
  66              	echoInt2_handler:
  67              	.LFB66:
  54:..\..\..\3semesterProjekt_repository\Ultrasoundv2\Ultrasoundv2.cydsn/edgeSensorApp.c ****     }
  55:..\..\..\3semesterProjekt_repository\Ultrasoundv2\Ultrasoundv2.cydsn/edgeSensorApp.c **** }
  56:..\..\..\3semesterProjekt_repository\Ultrasoundv2\Ultrasoundv2.cydsn/edgeSensorApp.c **** 
  57:..\..\..\3semesterProjekt_repository\Ultrasoundv2\Ultrasoundv2.cydsn/edgeSensorApp.c **** CY_ISR(echoInt2_handler)
  58:..\..\..\3semesterProjekt_repository\Ultrasoundv2\Ultrasoundv2.cydsn/edgeSensorApp.c **** {
  68              		.loc 1 58 0
  69              		.cfi_startproc
  70              		@ args = 0, pretend = 0, frame = 0
  71              		@ frame_needed = 0, uses_anonymous_args = 0
  72              		@ link register save eliminated.
  59:..\..\..\3semesterProjekt_repository\Ultrasoundv2\Ultrasoundv2.cydsn/edgeSensorApp.c ****     e2 = 1;
  73              		.loc 1 59 0
  74 0000 074B     		ldr	r3, .L7
  75 0002 0122     		movs	r2, #1
  76 0004 5A60     		str	r2, [r3, #4]
  60:..\..\..\3semesterProjekt_repository\Ultrasoundv2\Ultrasoundv2.cydsn/edgeSensorApp.c ****     if((e1+e2+e3+e4) == 4 )
  77              		.loc 1 60 0
  78 0006 1968     		ldr	r1, [r3]
  79 0008 5A68     		ldr	r2, [r3, #4]
  80 000a 1144     		add	r1, r1, r2
  81 000c 9A68     		ldr	r2, [r3, #8]
  82 000e 0A44     		add	r2, r2, r1
  83 0010 DB68     		ldr	r3, [r3, #12]
  84 0012 1344     		add	r3, r3, r2
  85 0014 042B     		cmp	r3, #4
  86 0016 02D1     		bne	.L5
  61:..\..\..\3semesterProjekt_repository\Ultrasoundv2\Ultrasoundv2.cydsn/edgeSensorApp.c ****     {
  62:..\..\..\3semesterProjekt_repository\Ultrasoundv2\Ultrasoundv2.cydsn/edgeSensorApp.c ****         status = 20;
  87              		.loc 1 62 0
  88 0018 1422     		movs	r2, #20
  89 001a 014B     		ldr	r3, .L7
  90 001c 1A61     		str	r2, [r3, #16]
  91              	.L5:
  92 001e 7047     		bx	lr
  93              	.L8:
  94              		.align	2
  95              	.L7:
  96 0020 00000000 		.word	.LANCHOR0
  97              		.cfi_endproc
  98              	.LFE66:
  99              		.size	echoInt2_handler, .-echoInt2_handler
 100              		.section	.text.echoInt3_handler,"ax",%progbits
 101              		.align	2
 102              		.global	echoInt3_handler
 103              		.thumb
 104              		.thumb_func
 105              		.type	echoInt3_handler, %function
 106              	echoInt3_handler:
 107              	.LFB67:
  63:..\..\..\3semesterProjekt_repository\Ultrasoundv2\Ultrasoundv2.cydsn/edgeSensorApp.c ****     }
  64:..\..\..\3semesterProjekt_repository\Ultrasoundv2\Ultrasoundv2.cydsn/edgeSensorApp.c **** }
ARM GAS  C:\Users\LUCASI~1\AppData\Local\Temp\ccimDKy2.s 			page 4


  65:..\..\..\3semesterProjekt_repository\Ultrasoundv2\Ultrasoundv2.cydsn/edgeSensorApp.c **** 
  66:..\..\..\3semesterProjekt_repository\Ultrasoundv2\Ultrasoundv2.cydsn/edgeSensorApp.c **** CY_ISR(echoInt3_handler)
  67:..\..\..\3semesterProjekt_repository\Ultrasoundv2\Ultrasoundv2.cydsn/edgeSensorApp.c **** {   
 108              		.loc 1 67 0
 109              		.cfi_startproc
 110              		@ args = 0, pretend = 0, frame = 0
 111              		@ frame_needed = 0, uses_anonymous_args = 0
 112              		@ link register save eliminated.
  68:..\..\..\3semesterProjekt_repository\Ultrasoundv2\Ultrasoundv2.cydsn/edgeSensorApp.c ****     e3 = 1;
 113              		.loc 1 68 0
 114 0000 074B     		ldr	r3, .L11
 115 0002 0122     		movs	r2, #1
 116 0004 9A60     		str	r2, [r3, #8]
  69:..\..\..\3semesterProjekt_repository\Ultrasoundv2\Ultrasoundv2.cydsn/edgeSensorApp.c ****     if((e1+e2+e3+e4) == 4 )
 117              		.loc 1 69 0
 118 0006 1968     		ldr	r1, [r3]
 119 0008 5A68     		ldr	r2, [r3, #4]
 120 000a 1144     		add	r1, r1, r2
 121 000c 9A68     		ldr	r2, [r3, #8]
 122 000e 0A44     		add	r2, r2, r1
 123 0010 DB68     		ldr	r3, [r3, #12]
 124 0012 1344     		add	r3, r3, r2
 125 0014 042B     		cmp	r3, #4
 126 0016 02D1     		bne	.L9
  70:..\..\..\3semesterProjekt_repository\Ultrasoundv2\Ultrasoundv2.cydsn/edgeSensorApp.c ****     {
  71:..\..\..\3semesterProjekt_repository\Ultrasoundv2\Ultrasoundv2.cydsn/edgeSensorApp.c ****         status = 30;
 127              		.loc 1 71 0
 128 0018 1E22     		movs	r2, #30
 129 001a 014B     		ldr	r3, .L11
 130 001c 1A61     		str	r2, [r3, #16]
 131              	.L9:
 132 001e 7047     		bx	lr
 133              	.L12:
 134              		.align	2
 135              	.L11:
 136 0020 00000000 		.word	.LANCHOR0
 137              		.cfi_endproc
 138              	.LFE67:
 139              		.size	echoInt3_handler, .-echoInt3_handler
 140              		.section	.text.echoInt4_handler,"ax",%progbits
 141              		.align	2
 142              		.global	echoInt4_handler
 143              		.thumb
 144              		.thumb_func
 145              		.type	echoInt4_handler, %function
 146              	echoInt4_handler:
 147              	.LFB68:
  72:..\..\..\3semesterProjekt_repository\Ultrasoundv2\Ultrasoundv2.cydsn/edgeSensorApp.c ****     }
  73:..\..\..\3semesterProjekt_repository\Ultrasoundv2\Ultrasoundv2.cydsn/edgeSensorApp.c **** }
  74:..\..\..\3semesterProjekt_repository\Ultrasoundv2\Ultrasoundv2.cydsn/edgeSensorApp.c **** 
  75:..\..\..\3semesterProjekt_repository\Ultrasoundv2\Ultrasoundv2.cydsn/edgeSensorApp.c **** CY_ISR(echoInt4_handler)
  76:..\..\..\3semesterProjekt_repository\Ultrasoundv2\Ultrasoundv2.cydsn/edgeSensorApp.c **** {
 148              		.loc 1 76 0
 149              		.cfi_startproc
 150              		@ args = 0, pretend = 0, frame = 0
 151              		@ frame_needed = 0, uses_anonymous_args = 0
 152              		@ link register save eliminated.
ARM GAS  C:\Users\LUCASI~1\AppData\Local\Temp\ccimDKy2.s 			page 5


  77:..\..\..\3semesterProjekt_repository\Ultrasoundv2\Ultrasoundv2.cydsn/edgeSensorApp.c ****     e4 = 1;
 153              		.loc 1 77 0
 154 0000 074B     		ldr	r3, .L15
 155 0002 0122     		movs	r2, #1
 156 0004 DA60     		str	r2, [r3, #12]
  78:..\..\..\3semesterProjekt_repository\Ultrasoundv2\Ultrasoundv2.cydsn/edgeSensorApp.c ****     if((e1+e2+e3+e4) == 4 )
 157              		.loc 1 78 0
 158 0006 1968     		ldr	r1, [r3]
 159 0008 5A68     		ldr	r2, [r3, #4]
 160 000a 1144     		add	r1, r1, r2
 161 000c 9A68     		ldr	r2, [r3, #8]
 162 000e 0A44     		add	r2, r2, r1
 163 0010 DB68     		ldr	r3, [r3, #12]
 164 0012 1344     		add	r3, r3, r2
 165 0014 042B     		cmp	r3, #4
 166 0016 02D1     		bne	.L13
  79:..\..\..\3semesterProjekt_repository\Ultrasoundv2\Ultrasoundv2.cydsn/edgeSensorApp.c ****     {
  80:..\..\..\3semesterProjekt_repository\Ultrasoundv2\Ultrasoundv2.cydsn/edgeSensorApp.c ****         status = 40;
 167              		.loc 1 80 0
 168 0018 2822     		movs	r2, #40
 169 001a 014B     		ldr	r3, .L15
 170 001c 1A61     		str	r2, [r3, #16]
 171              	.L13:
 172 001e 7047     		bx	lr
 173              	.L16:
 174              		.align	2
 175              	.L15:
 176 0020 00000000 		.word	.LANCHOR0
 177              		.cfi_endproc
 178              	.LFE68:
 179              		.size	echoInt4_handler, .-echoInt4_handler
 180              		.section	.text.edgeSensorInit,"ax",%progbits
 181              		.align	2
 182              		.global	edgeSensorInit
 183              		.thumb
 184              		.thumb_func
 185              		.type	edgeSensorInit, %function
 186              	edgeSensorInit:
 187              	.LFB69:
  81:..\..\..\3semesterProjekt_repository\Ultrasoundv2\Ultrasoundv2.cydsn/edgeSensorApp.c ****     }
  82:..\..\..\3semesterProjekt_repository\Ultrasoundv2\Ultrasoundv2.cydsn/edgeSensorApp.c **** }
  83:..\..\..\3semesterProjekt_repository\Ultrasoundv2\Ultrasoundv2.cydsn/edgeSensorApp.c **** 
  84:..\..\..\3semesterProjekt_repository\Ultrasoundv2\Ultrasoundv2.cydsn/edgeSensorApp.c **** void edgeSensorInit()
  85:..\..\..\3semesterProjekt_repository\Ultrasoundv2\Ultrasoundv2.cydsn/edgeSensorApp.c **** {
 188              		.loc 1 85 0
 189              		.cfi_startproc
 190              		@ args = 0, pretend = 0, frame = 0
 191              		@ frame_needed = 0, uses_anonymous_args = 0
 192 0000 08B5     		push	{r3, lr}
 193              		.cfi_def_cfa_offset 8
 194              		.cfi_offset 3, -8
 195              		.cfi_offset 14, -4
  86:..\..\..\3semesterProjekt_repository\Ultrasoundv2\Ultrasoundv2.cydsn/edgeSensorApp.c ****     //Start 500kHz clock
  87:..\..\..\3semesterProjekt_repository\Ultrasoundv2\Ultrasoundv2.cydsn/edgeSensorApp.c ****     CLK_500kHz_Start();
 196              		.loc 1 87 0
 197 0002 FFF7FEFF 		bl	CLK_500kHz_Start
 198              	.LVL0:
ARM GAS  C:\Users\LUCASI~1\AppData\Local\Temp\ccimDKy2.s 			page 6


  88:..\..\..\3semesterProjekt_repository\Ultrasoundv2\Ultrasoundv2.cydsn/edgeSensorApp.c ****     //Start 24MHz clock
  89:..\..\..\3semesterProjekt_repository\Ultrasoundv2\Ultrasoundv2.cydsn/edgeSensorApp.c ****     CLK_24MHz_Start();
 199              		.loc 1 89 0
 200 0006 FFF7FEFF 		bl	CLK_24MHz_Start
 201              	.LVL1:
  90:..\..\..\3semesterProjekt_repository\Ultrasoundv2\Ultrasoundv2.cydsn/edgeSensorApp.c ****     //Start trigger
  91:..\..\..\3semesterProjekt_repository\Ultrasoundv2\Ultrasoundv2.cydsn/edgeSensorApp.c ****     triggerPWM_Start();
 202              		.loc 1 91 0
 203 000a FFF7FEFF 		bl	triggerPWM_Start
 204              	.LVL2:
  92:..\..\..\3semesterProjekt_repository\Ultrasoundv2\Ultrasoundv2.cydsn/edgeSensorApp.c ****     //Start counters
  93:..\..\..\3semesterProjekt_repository\Ultrasoundv2\Ultrasoundv2.cydsn/edgeSensorApp.c ****     pulseCounter_Start();
 205              		.loc 1 93 0
 206 000e FFF7FEFF 		bl	pulseCounter_Start
 207              	.LVL3:
  94:..\..\..\3semesterProjekt_repository\Ultrasoundv2\Ultrasoundv2.cydsn/edgeSensorApp.c ****     //Start interrupts
  95:..\..\..\3semesterProjekt_repository\Ultrasoundv2\Ultrasoundv2.cydsn/edgeSensorApp.c ****     pulseInt_StartEx(pulseInt_handler);
 208              		.loc 1 95 0
 209 0012 0848     		ldr	r0, .L19
 210 0014 FFF7FEFF 		bl	pulseInt_StartEx
 211              	.LVL4:
  96:..\..\..\3semesterProjekt_repository\Ultrasoundv2\Ultrasoundv2.cydsn/edgeSensorApp.c ****     echoInt_1_StartEx(echoInt1_handler);
 212              		.loc 1 96 0
 213 0018 0748     		ldr	r0, .L19+4
 214 001a FFF7FEFF 		bl	echoInt_1_StartEx
 215              	.LVL5:
  97:..\..\..\3semesterProjekt_repository\Ultrasoundv2\Ultrasoundv2.cydsn/edgeSensorApp.c ****     echoInt_2_StartEx(echoInt2_handler);
 216              		.loc 1 97 0
 217 001e 0748     		ldr	r0, .L19+8
 218 0020 FFF7FEFF 		bl	echoInt_2_StartEx
 219              	.LVL6:
  98:..\..\..\3semesterProjekt_repository\Ultrasoundv2\Ultrasoundv2.cydsn/edgeSensorApp.c ****     echoInt_3_StartEx(echoInt3_handler);
 220              		.loc 1 98 0
 221 0024 0648     		ldr	r0, .L19+12
 222 0026 FFF7FEFF 		bl	echoInt_3_StartEx
 223              	.LVL7:
  99:..\..\..\3semesterProjekt_repository\Ultrasoundv2\Ultrasoundv2.cydsn/edgeSensorApp.c ****     echoInt_4_StartEx(echoInt4_handler);
 224              		.loc 1 99 0
 225 002a 0648     		ldr	r0, .L19+16
 226 002c FFF7FEFF 		bl	echoInt_4_StartEx
 227              	.LVL8:
 228 0030 08BD     		pop	{r3, pc}
 229              	.L20:
 230 0032 00BF     		.align	2
 231              	.L19:
 232 0034 00000000 		.word	pulseInt_handler
 233 0038 00000000 		.word	echoInt1_handler
 234 003c 00000000 		.word	echoInt2_handler
 235 0040 00000000 		.word	echoInt3_handler
 236 0044 00000000 		.word	echoInt4_handler
 237              		.cfi_endproc
 238              	.LFE69:
 239              		.size	edgeSensorInit, .-edgeSensorInit
 240              		.section	.text.getStatus,"ax",%progbits
 241              		.align	2
 242              		.global	getStatus
 243              		.thumb
ARM GAS  C:\Users\LUCASI~1\AppData\Local\Temp\ccimDKy2.s 			page 7


 244              		.thumb_func
 245              		.type	getStatus, %function
 246              	getStatus:
 247              	.LFB70:
 100:..\..\..\3semesterProjekt_repository\Ultrasoundv2\Ultrasoundv2.cydsn/edgeSensorApp.c **** }
 101:..\..\..\3semesterProjekt_repository\Ultrasoundv2\Ultrasoundv2.cydsn/edgeSensorApp.c **** 
 102:..\..\..\3semesterProjekt_repository\Ultrasoundv2\Ultrasoundv2.cydsn/edgeSensorApp.c **** int getStatus()
 103:..\..\..\3semesterProjekt_repository\Ultrasoundv2\Ultrasoundv2.cydsn/edgeSensorApp.c **** {
 248              		.loc 1 103 0
 249              		.cfi_startproc
 250              		@ args = 0, pretend = 0, frame = 0
 251              		@ frame_needed = 0, uses_anonymous_args = 0
 252              		@ link register save eliminated.
 104:..\..\..\3semesterProjekt_repository\Ultrasoundv2\Ultrasoundv2.cydsn/edgeSensorApp.c ****     int tempStatus = status;
 253              		.loc 1 104 0
 254 0000 044B     		ldr	r3, .L22
 255 0002 1869     		ldr	r0, [r3, #16]
 256              	.LVL9:
 105:..\..\..\3semesterProjekt_repository\Ultrasoundv2\Ultrasoundv2.cydsn/edgeSensorApp.c ****     
 106:..\..\..\3semesterProjekt_repository\Ultrasoundv2\Ultrasoundv2.cydsn/edgeSensorApp.c ****     //Resetting variables
 107:..\..\..\3semesterProjekt_repository\Ultrasoundv2\Ultrasoundv2.cydsn/edgeSensorApp.c ****     status = 0;
 257              		.loc 1 107 0
 258 0004 0022     		movs	r2, #0
 259 0006 1A61     		str	r2, [r3, #16]
 108:..\..\..\3semesterProjekt_repository\Ultrasoundv2\Ultrasoundv2.cydsn/edgeSensorApp.c ****     e1 = 0;
 260              		.loc 1 108 0
 261 0008 1A60     		str	r2, [r3]
 109:..\..\..\3semesterProjekt_repository\Ultrasoundv2\Ultrasoundv2.cydsn/edgeSensorApp.c ****     e2 = 0;
 262              		.loc 1 109 0
 263 000a 5A60     		str	r2, [r3, #4]
 110:..\..\..\3semesterProjekt_repository\Ultrasoundv2\Ultrasoundv2.cydsn/edgeSensorApp.c ****     e3 = 0;
 264              		.loc 1 110 0
 265 000c 9A60     		str	r2, [r3, #8]
 111:..\..\..\3semesterProjekt_repository\Ultrasoundv2\Ultrasoundv2.cydsn/edgeSensorApp.c ****     e4 = 0;
 266              		.loc 1 111 0
 267 000e DA60     		str	r2, [r3, #12]
 112:..\..\..\3semesterProjekt_repository\Ultrasoundv2\Ultrasoundv2.cydsn/edgeSensorApp.c ****     
 113:..\..\..\3semesterProjekt_repository\Ultrasoundv2\Ultrasoundv2.cydsn/edgeSensorApp.c ****     return tempStatus;
 114:..\..\..\3semesterProjekt_repository\Ultrasoundv2\Ultrasoundv2.cydsn/edgeSensorApp.c **** }...
 268              		.loc 1 114 0
 269 0010 7047     		bx	lr
 270              	.L23:
 271 0012 00BF     		.align	2
 272              	.L22:
 273 0014 00000000 		.word	.LANCHOR0
 274              		.cfi_endproc
 275              	.LFE70:
 276              		.size	getStatus, .-getStatus
 277              		.section	.text.pulseInt_handler,"ax",%progbits
 278              		.align	2
 279              		.global	pulseInt_handler
 280              		.thumb
 281              		.thumb_func
 282              		.type	pulseInt_handler, %function
 283              	pulseInt_handler:
 284              	.LFB64:
   9:..\..\..\3semesterProjekt_repository\Ultrasoundv2\Ultrasoundv2.cydsn/edgeSensorApp.c **** {
ARM GAS  C:\Users\LUCASI~1\AppData\Local\Temp\ccimDKy2.s 			page 8


 285              		.loc 1 9 0
 286              		.cfi_startproc
 287              		@ args = 0, pretend = 0, frame = 0
 288              		@ frame_needed = 0, uses_anonymous_args = 0
 289 0000 08B5     		push	{r3, lr}
 290              		.cfi_def_cfa_offset 8
 291              		.cfi_offset 3, -8
 292              		.cfi_offset 14, -4
  10:..\..\..\3semesterProjekt_repository\Ultrasoundv2\Ultrasoundv2.cydsn/edgeSensorApp.c ****     triggerPWM_Stop();
 293              		.loc 1 10 0
 294 0002 FFF7FEFF 		bl	triggerPWM_Stop
 295              	.LVL10:
  12:..\..\..\3semesterProjekt_repository\Ultrasoundv2\Ultrasoundv2.cydsn/edgeSensorApp.c ****     pulseWidth = pulseCounter_ReadCapture();
 296              		.loc 1 12 0
 297 0006 FFF7FEFF 		bl	pulseCounter_ReadCapture
 298              	.LVL11:
 299 000a 1E4B     		ldr	r3, .L34
 300 000c 1860     		str	r0, [r3]
  14:..\..\..\3semesterProjekt_repository\Ultrasoundv2\Ultrasoundv2.cydsn/edgeSensorApp.c ****     time_us = (uint32_t)pulseWidth * 2; 
 301              		.loc 1 14 0
 302 000e 1B68     		ldr	r3, [r3]
 303 0010 5B00     		lsls	r3, r3, #1
 304 0012 1D4A     		ldr	r2, .L34+4
 305 0014 1360     		str	r3, [r2]
  17:..\..\..\3semesterProjekt_repository\Ultrasoundv2\Ultrasoundv2.cydsn/edgeSensorApp.c ****     if(time_us > 1196)
 306              		.loc 1 17 0
 307 0016 1268     		ldr	r2, [r2]
 308 0018 40F2AC43 		movw	r3, #1196
 309 001c 9A42     		cmp	r2, r3
 310 001e 03DD     		ble	.L25
  19:..\..\..\3semesterProjekt_repository\Ultrasoundv2\Ultrasoundv2.cydsn/edgeSensorApp.c ****         status = status + 1;
 311              		.loc 1 19 0
 312 0020 1A4A     		ldr	r2, .L34+8
 313 0022 1369     		ldr	r3, [r2, #16]
 314 0024 0133     		adds	r3, r3, #1
 315 0026 1361     		str	r3, [r2, #16]
 316              	.L25:
  22:..\..\..\3semesterProjekt_repository\Ultrasoundv2\Ultrasoundv2.cydsn/edgeSensorApp.c ****     switch (status)
 317              		.loc 1 22 0
 318 0028 184B     		ldr	r3, .L34+8
 319 002a 1B69     		ldr	r3, [r3, #16]
 320 002c 0B3B     		subs	r3, r3, #11
 321 002e 1E2B     		cmp	r3, #30
 322 0030 1FD8     		bhi	.L26
 323 0032 DFE803F0 		tbb	[pc, r3]
 324              	.L28:
 325 0036 10       		.byte	(.L27-.L28)/2
 326 0037 1E       		.byte	(.L26-.L28)/2
 327 0038 1E       		.byte	(.L26-.L28)/2
 328 0039 1E       		.byte	(.L26-.L28)/2
 329 003a 1E       		.byte	(.L26-.L28)/2
 330 003b 1E       		.byte	(.L26-.L28)/2
 331 003c 1E       		.byte	(.L26-.L28)/2
 332 003d 1E       		.byte	(.L26-.L28)/2
 333 003e 1E       		.byte	(.L26-.L28)/2
 334 003f 1E       		.byte	(.L26-.L28)/2
 335 0040 13       		.byte	(.L29-.L28)/2
ARM GAS  C:\Users\LUCASI~1\AppData\Local\Temp\ccimDKy2.s 			page 9


 336 0041 1E       		.byte	(.L26-.L28)/2
 337 0042 1E       		.byte	(.L26-.L28)/2
 338 0043 1E       		.byte	(.L26-.L28)/2
 339 0044 1E       		.byte	(.L26-.L28)/2
 340 0045 1E       		.byte	(.L26-.L28)/2
 341 0046 1E       		.byte	(.L26-.L28)/2
 342 0047 1E       		.byte	(.L26-.L28)/2
 343 0048 1E       		.byte	(.L26-.L28)/2
 344 0049 1E       		.byte	(.L26-.L28)/2
 345 004a 17       		.byte	(.L30-.L28)/2
 346 004b 1E       		.byte	(.L26-.L28)/2
 347 004c 1E       		.byte	(.L26-.L28)/2
 348 004d 1E       		.byte	(.L26-.L28)/2
 349 004e 1E       		.byte	(.L26-.L28)/2
 350 004f 1E       		.byte	(.L26-.L28)/2
 351 0050 1E       		.byte	(.L26-.L28)/2
 352 0051 1E       		.byte	(.L26-.L28)/2
 353 0052 1E       		.byte	(.L26-.L28)/2
 354 0053 1E       		.byte	(.L26-.L28)/2
 355 0054 1B       		.byte	(.L31-.L28)/2
 356 0055 00       		.p2align 1
 357              	.L27:
  25:..\..\..\3semesterProjekt_repository\Ultrasoundv2\Ultrasoundv2.cydsn/edgeSensorApp.c ****                     DelayBased180Turn();
 358              		.loc 1 25 0
 359 0056 FFF7FEFF 		bl	DelayBased180Turn
 360              	.LVL12:
  26:..\..\..\3semesterProjekt_repository\Ultrasoundv2\Ultrasoundv2.cydsn/edgeSensorApp.c ****                 break;
 361              		.loc 1 26 0
 362 005a 0CE0     		b	.L32
 363              	.L29:
  28:..\..\..\3semesterProjekt_repository\Ultrasoundv2\Ultrasoundv2.cydsn/edgeSensorApp.c ****                     DelayBased90Turn(1);
 364              		.loc 1 28 0
 365 005c 0120     		movs	r0, #1
 366 005e FFF7FEFF 		bl	DelayBased90Turn
 367              	.LVL13:
  29:..\..\..\3semesterProjekt_repository\Ultrasoundv2\Ultrasoundv2.cydsn/edgeSensorApp.c ****                 break;
 368              		.loc 1 29 0
 369 0062 08E0     		b	.L32
 370              	.L30:
  31:..\..\..\3semesterProjekt_repository\Ultrasoundv2\Ultrasoundv2.cydsn/edgeSensorApp.c ****                     DelayBased90Turn(2);
 371              		.loc 1 31 0
 372 0064 0220     		movs	r0, #2
 373 0066 FFF7FEFF 		bl	DelayBased90Turn
 374              	.LVL14:
  32:..\..\..\3semesterProjekt_repository\Ultrasoundv2\Ultrasoundv2.cydsn/edgeSensorApp.c ****                 break;
 375              		.loc 1 32 0
 376 006a 04E0     		b	.L32
 377              	.L31:
  34:..\..\..\3semesterProjekt_repository\Ultrasoundv2\Ultrasoundv2.cydsn/edgeSensorApp.c ****                     DelayBased180Turn();
 378              		.loc 1 34 0
 379 006c FFF7FEFF 		bl	DelayBased180Turn
 380              	.LVL15:
  35:..\..\..\3semesterProjekt_repository\Ultrasoundv2\Ultrasoundv2.cydsn/edgeSensorApp.c ****                 break;
 381              		.loc 1 35 0
 382 0070 01E0     		b	.L32
 383              	.L26:
  37:..\..\..\3semesterProjekt_repository\Ultrasoundv2\Ultrasoundv2.cydsn/edgeSensorApp.c ****                     driveForwards();
ARM GAS  C:\Users\LUCASI~1\AppData\Local\Temp\ccimDKy2.s 			page 10


 384              		.loc 1 37 0
 385 0072 FFF7FEFF 		bl	driveForwards
 386              	.LVL16:
 387              	.L32:
  42:..\..\..\3semesterProjekt_repository\Ultrasoundv2\Ultrasoundv2.cydsn/edgeSensorApp.c ****     getStatus();
 388              		.loc 1 42 0
 389 0076 FFF7FEFF 		bl	getStatus
 390              	.LVL17:
  44:..\..\..\3semesterProjekt_repository\Ultrasoundv2\Ultrasoundv2.cydsn/edgeSensorApp.c ****     pulseCounter_ReadStatusRegister();
 391              		.loc 1 44 0
 392 007a FFF7FEFF 		bl	pulseCounter_ReadStatusRegister
 393              	.LVL18:
  45:..\..\..\3semesterProjekt_repository\Ultrasoundv2\Ultrasoundv2.cydsn/edgeSensorApp.c ****     triggerPWM_Start();
 394              		.loc 1 45 0
 395 007e FFF7FEFF 		bl	triggerPWM_Start
 396              	.LVL19:
 397 0082 08BD     		pop	{r3, pc}
 398              	.L35:
 399              		.align	2
 400              	.L34:
 401 0084 00000000 		.word	pulseWidth
 402 0088 00000000 		.word	time_us
 403 008c 00000000 		.word	.LANCHOR0
 404              		.cfi_endproc
 405              	.LFE64:
 406              		.size	pulseInt_handler, .-pulseInt_handler
 407              		.global	status
 408              		.global	e4
 409              		.global	e3
 410              		.global	e2
 411              		.global	e1
 412              		.comm	time_us,4,4
 413              		.comm	pulseWidth,4,4
 414              		.comm	randturn,4,4
 415              		.comm	randState,4,4
 416              		.comm	state,4,4
 417              		.comm	difficulty,4,4
 418              		.comm	buffer,250,4
 419              		.comm	NP_g_nFrameBufferSize,4,4
 420              		.comm	NP_g_pFrameBuffer,4,4
 421              		.comm	NP_g_bOwnsBuffer,1,1
 422              		.comm	NP_g_nDMA_TD,1,1
 423              		.comm	NP_g_nDMA_Chan,1,1
 424              		.comm	NP_g_nNumberOfPixels,4,4
 425              		.bss
 426              		.align	2
 427              		.set	.LANCHOR0,. + 0
 428              		.type	e1, %object
 429              		.size	e1, 4
 430              	e1:
 431 0000 00000000 		.space	4
 432              		.type	e2, %object
 433              		.size	e2, 4
 434              	e2:
 435 0004 00000000 		.space	4
 436              		.type	e3, %object
 437              		.size	e3, 4
ARM GAS  C:\Users\LUCASI~1\AppData\Local\Temp\ccimDKy2.s 			page 11


 438              	e3:
 439 0008 00000000 		.space	4
 440              		.type	e4, %object
 441              		.size	e4, 4
 442              	e4:
 443 000c 00000000 		.space	4
 444              		.type	status, %object
 445              		.size	status, 4
 446              	status:
 447 0010 00000000 		.space	4
 448              		.text
 449              	.Letext0:
 450              		.file 2 "c:\\program files (x86)\\cypress\\psoc creator\\4.2\\psoc creator\\import\\gnu\\arm\\5.4.
 451              		.file 3 "c:\\program files (x86)\\cypress\\psoc creator\\4.2\\psoc creator\\import\\gnu\\arm\\5.4.
 452              		.file 4 "Generated_Source\\PSoC5/cytypes.h"
 453              		.file 5 "Generated_Source\\PSoC5/NP_funcs.h"
 454              		.file 6 "Generated_Source\\PSoC5/core_cm3.h"
 455              		.file 7 "..\\..\\..\\3semesterProjekt_repository\\Ultrasoundv2\\Ultrasoundv2.cydsn\\MotorApp.h"
 456              		.file 8 "Generated_Source\\PSoC5/CLK_500kHz.h"
 457              		.file 9 "Generated_Source\\PSoC5/CLK_24MHz.h"
 458              		.file 10 "Generated_Source\\PSoC5/triggerPWM.h"
 459              		.file 11 "Generated_Source\\PSoC5/pulseCounter.h"
 460              		.file 12 "Generated_Source\\PSoC5/pulseInt.h"
 461              		.file 13 "Generated_Source\\PSoC5/echoInt_1.h"
 462              		.file 14 "Generated_Source\\PSoC5/echoInt_2.h"
 463              		.file 15 "Generated_Source\\PSoC5/echoInt_3.h"
 464              		.file 16 "Generated_Source\\PSoC5/echoInt_4.h"