ARM GAS  C:\Users\LUCASI~1\AppData\Local\Temp\ccFFyRmk.s 			page 1


   1              		.syntax unified
   2              		.cpu cortex-m3
   3              		.fpu softvfp
   4              		.eabi_attribute 20, 1
   5              		.eabi_attribute 21, 1
   6              		.eabi_attribute 23, 3
   7              		.eabi_attribute 24, 1
   8              		.eabi_attribute 25, 1
   9              		.eabi_attribute 26, 1
  10              		.eabi_attribute 30, 1
  11              		.eabi_attribute 34, 1
  12              		.eabi_attribute 18, 4
  13              		.thumb
  14              		.syntax unified
  15              		.file	"MotorApp.c"
  16              		.text
  17              	.Ltext0:
  18              		.cfi_sections	.debug_frame
  19              		.section	.text.driveForwards,"ax",%progbits
  20              		.align	2
  21              		.global	driveForwards
  22              		.thumb
  23              		.thumb_func
  24              		.type	driveForwards, %function
  25              	driveForwards:
  26              	.LFB66:
  27              		.file 1 "..\\..\\..\\3semesterProjekt_repository\\Ultrasoundv2\\Ultrasoundv2.cydsn\\MotorApp.c"
   1:..\..\..\3semesterProjekt_repository\Ultrasoundv2\Ultrasoundv2.cydsn/MotorApp.c **** #include "MotorApp.h"
   2:..\..\..\3semesterProjekt_repository\Ultrasoundv2\Ultrasoundv2.cydsn/MotorApp.c **** #include "waitingState.h"
   3:..\..\..\3semesterProjekt_repository\Ultrasoundv2\Ultrasoundv2.cydsn/MotorApp.c **** #include <time.h>
   4:..\..\..\3semesterProjekt_repository\Ultrasoundv2\Ultrasoundv2.cydsn/MotorApp.c **** #include <stdlib.h> 
   5:..\..\..\3semesterProjekt_repository\Ultrasoundv2\Ultrasoundv2.cydsn/MotorApp.c **** 
   6:..\..\..\3semesterProjekt_repository\Ultrasoundv2\Ultrasoundv2.cydsn/MotorApp.c **** /*
   7:..\..\..\3semesterProjekt_repository\Ultrasoundv2\Ultrasoundv2.cydsn/MotorApp.c **** Dette er et to dimensionelt array der indeholder de forskellige duty cycles der kan sendes til de t
   8:..\..\..\3semesterProjekt_repository\Ultrasoundv2\Ultrasoundv2.cydsn/MotorApp.c **** og vil altid køre således. Ved at skifte rundt rundt i første dimension vil beerdroid dreje endt
   9:..\..\..\3semesterProjekt_repository\Ultrasoundv2\Ultrasoundv2.cydsn/MotorApp.c **** */
  10:..\..\..\3semesterProjekt_repository\Ultrasoundv2\Ultrasoundv2.cydsn/MotorApp.c **** int driveState[7][2] = {{10, 100},
  11:..\..\..\3semesterProjekt_repository\Ultrasoundv2\Ultrasoundv2.cydsn/MotorApp.c ****                         {30, 100},
  12:..\..\..\3semesterProjekt_repository\Ultrasoundv2\Ultrasoundv2.cydsn/MotorApp.c ****                         {50, 100},
  13:..\..\..\3semesterProjekt_repository\Ultrasoundv2\Ultrasoundv2.cydsn/MotorApp.c ****                         {70, 100},
  14:..\..\..\3semesterProjekt_repository\Ultrasoundv2\Ultrasoundv2.cydsn/MotorApp.c ****                         {70, 80},
  15:..\..\..\3semesterProjekt_repository\Ultrasoundv2\Ultrasoundv2.cydsn/MotorApp.c ****                         {70, 60},
  16:..\..\..\3semesterProjekt_repository\Ultrasoundv2\Ultrasoundv2.cydsn/MotorApp.c ****                         {70, 40}};
  17:..\..\..\3semesterProjekt_repository\Ultrasoundv2\Ultrasoundv2.cydsn/MotorApp.c **** 
  18:..\..\..\3semesterProjekt_repository\Ultrasoundv2\Ultrasoundv2.cydsn/MotorApp.c **** 
  19:..\..\..\3semesterProjekt_repository\Ultrasoundv2\Ultrasoundv2.cydsn/MotorApp.c **** //denne funktion skifter tilfældigt rundt i driveState arrayet
  20:..\..\..\3semesterProjekt_repository\Ultrasoundv2\Ultrasoundv2.cydsn/MotorApp.c **** void speedSelect()
  21:..\..\..\3semesterProjekt_repository\Ultrasoundv2\Ultrasoundv2.cydsn/MotorApp.c **** {    
  22:..\..\..\3semesterProjekt_repository\Ultrasoundv2\Ultrasoundv2.cydsn/MotorApp.c ****     if(randState == 0)                      //Når randstate er 0, laves en ny randstate værdi ime
  23:..\..\..\3semesterProjekt_repository\Ultrasoundv2\Ultrasoundv2.cydsn/MotorApp.c ****     {
  24:..\..\..\3semesterProjekt_repository\Ultrasoundv2\Ultrasoundv2.cydsn/MotorApp.c ****         srand(time(NULL));
  25:..\..\..\3semesterProjekt_repository\Ultrasoundv2\Ultrasoundv2.cydsn/MotorApp.c ****         randState = rand() % 7 - 3;
  26:..\..\..\3semesterProjekt_repository\Ultrasoundv2\Ultrasoundv2.cydsn/MotorApp.c ****     }
  27:..\..\..\3semesterProjekt_repository\Ultrasoundv2\Ultrasoundv2.cydsn/MotorApp.c ****     if(randState < 0)                       //Hvis randstate er under 0 rykkes en gang ned i arraye
  28:..\..\..\3semesterProjekt_repository\Ultrasoundv2\Ultrasoundv2.cydsn/MotorApp.c ****     {
  29:..\..\..\3semesterProjekt_repository\Ultrasoundv2\Ultrasoundv2.cydsn/MotorApp.c ****         changeState(-1);
  30:..\..\..\3semesterProjekt_repository\Ultrasoundv2\Ultrasoundv2.cydsn/MotorApp.c ****         randState++;                        //randsdtate forøges så den til sidst rammer 0 og der
ARM GAS  C:\Users\LUCASI~1\AppData\Local\Temp\ccFFyRmk.s 			page 2


  31:..\..\..\3semesterProjekt_repository\Ultrasoundv2\Ultrasoundv2.cydsn/MotorApp.c ****     }
  32:..\..\..\3semesterProjekt_repository\Ultrasoundv2\Ultrasoundv2.cydsn/MotorApp.c ****     else if(randState > 0)                  //Hvis randstate er over 0 rykkes en gang op i arrayet
  33:..\..\..\3semesterProjekt_repository\Ultrasoundv2\Ultrasoundv2.cydsn/MotorApp.c ****     {
  34:..\..\..\3semesterProjekt_repository\Ultrasoundv2\Ultrasoundv2.cydsn/MotorApp.c ****         changeState(1);
  35:..\..\..\3semesterProjekt_repository\Ultrasoundv2\Ultrasoundv2.cydsn/MotorApp.c ****         randState--;                        //randsdtate trækkes 1 fra så den til sidst rammer 0 
  36:..\..\..\3semesterProjekt_repository\Ultrasoundv2\Ultrasoundv2.cydsn/MotorApp.c ****     }
  37:..\..\..\3semesterProjekt_repository\Ultrasoundv2\Ultrasoundv2.cydsn/MotorApp.c **** }
  38:..\..\..\3semesterProjekt_repository\Ultrasoundv2\Ultrasoundv2.cydsn/MotorApp.c **** 
  39:..\..\..\3semesterProjekt_repository\Ultrasoundv2\Ultrasoundv2.cydsn/MotorApp.c **** void changeState(int change)                //Denne funktion sikre at state ikke forlader driveStat
  40:..\..\..\3semesterProjekt_repository\Ultrasoundv2\Ultrasoundv2.cydsn/MotorApp.c **** {
  41:..\..\..\3semesterProjekt_repository\Ultrasoundv2\Ultrasoundv2.cydsn/MotorApp.c ****   
  42:..\..\..\3semesterProjekt_repository\Ultrasoundv2\Ultrasoundv2.cydsn/MotorApp.c ****     
  43:..\..\..\3semesterProjekt_repository\Ultrasoundv2\Ultrasoundv2.cydsn/MotorApp.c ****     if(change == 1 || change == -1)
  44:..\..\..\3semesterProjekt_repository\Ultrasoundv2\Ultrasoundv2.cydsn/MotorApp.c ****     {
  45:..\..\..\3semesterProjekt_repository\Ultrasoundv2\Ultrasoundv2.cydsn/MotorApp.c ****         if(state > 0 && change == -1)
  46:..\..\..\3semesterProjekt_repository\Ultrasoundv2\Ultrasoundv2.cydsn/MotorApp.c ****         {
  47:..\..\..\3semesterProjekt_repository\Ultrasoundv2\Ultrasoundv2.cydsn/MotorApp.c ****             state += change;
  48:..\..\..\3semesterProjekt_repository\Ultrasoundv2\Ultrasoundv2.cydsn/MotorApp.c ****             changeSpeed();
  49:..\..\..\3semesterProjekt_repository\Ultrasoundv2\Ultrasoundv2.cydsn/MotorApp.c ****         }
  50:..\..\..\3semesterProjekt_repository\Ultrasoundv2\Ultrasoundv2.cydsn/MotorApp.c ****         else if(state < 6 && change == 1)
  51:..\..\..\3semesterProjekt_repository\Ultrasoundv2\Ultrasoundv2.cydsn/MotorApp.c ****         {
  52:..\..\..\3semesterProjekt_repository\Ultrasoundv2\Ultrasoundv2.cydsn/MotorApp.c ****             state += change;
  53:..\..\..\3semesterProjekt_repository\Ultrasoundv2\Ultrasoundv2.cydsn/MotorApp.c ****             changeSpeed();
  54:..\..\..\3semesterProjekt_repository\Ultrasoundv2\Ultrasoundv2.cydsn/MotorApp.c ****         } 
  55:..\..\..\3semesterProjekt_repository\Ultrasoundv2\Ultrasoundv2.cydsn/MotorApp.c ****     }
  56:..\..\..\3semesterProjekt_repository\Ultrasoundv2\Ultrasoundv2.cydsn/MotorApp.c **** }
  57:..\..\..\3semesterProjekt_repository\Ultrasoundv2\Ultrasoundv2.cydsn/MotorApp.c **** 
  58:..\..\..\3semesterProjekt_repository\Ultrasoundv2\Ultrasoundv2.cydsn/MotorApp.c **** 
  59:..\..\..\3semesterProjekt_repository\Ultrasoundv2\Ultrasoundv2.cydsn/MotorApp.c **** void driveForwards()                        //Denne funktion sætter motoren til at køre fremad
  60:..\..\..\3semesterProjekt_repository\Ultrasoundv2\Ultrasoundv2.cydsn/MotorApp.c **** {
  28              		.loc 1 60 0
  29              		.cfi_startproc
  30              		@ args = 0, pretend = 0, frame = 0
  31              		@ frame_needed = 0, uses_anonymous_args = 0
  32 0000 08B5     		push	{r3, lr}
  33              		.cfi_def_cfa_offset 8
  34              		.cfi_offset 3, -8
  35              		.cfi_offset 14, -4
  61:..\..\..\3semesterProjekt_repository\Ultrasoundv2\Ultrasoundv2.cydsn/MotorApp.c ****     if(running_ == 1)
  36              		.loc 1 61 0
  37 0002 0F4B     		ldr	r3, .L4
  38 0004 1B68     		ldr	r3, [r3]
  39 0006 012B     		cmp	r3, #1
  40 0008 19D1     		bne	.L1
  62:..\..\..\3semesterProjekt_repository\Ultrasoundv2\Ultrasoundv2.cydsn/MotorApp.c ****     {
  63:..\..\..\3semesterProjekt_repository\Ultrasoundv2\Ultrasoundv2.cydsn/MotorApp.c ****     motorPWM_1_Stop();
  41              		.loc 1 63 0
  42 000a FFF7FEFF 		bl	motorPWM_1_Stop
  43              	.LVL0:
  64:..\..\..\3semesterProjekt_repository\Ultrasoundv2\Ultrasoundv2.cydsn/MotorApp.c ****     motorPWM_2_Stop();
  44              		.loc 1 64 0
  45 000e FFF7FEFF 		bl	motorPWM_2_Stop
  46              	.LVL1:
  65:..\..\..\3semesterProjekt_repository\Ultrasoundv2\Ultrasoundv2.cydsn/MotorApp.c ****     
  66:..\..\..\3semesterProjekt_repository\Ultrasoundv2\Ultrasoundv2.cydsn/MotorApp.c ****     Pin1_dir1_Write(0);
  47              		.loc 1 66 0
  48 0012 0020     		movs	r0, #0
ARM GAS  C:\Users\LUCASI~1\AppData\Local\Temp\ccFFyRmk.s 			page 3


  49 0014 FFF7FEFF 		bl	Pin1_dir1_Write
  50              	.LVL2:
  67:..\..\..\3semesterProjekt_repository\Ultrasoundv2\Ultrasoundv2.cydsn/MotorApp.c ****     Pin1_dir2_Write(1);
  51              		.loc 1 67 0
  52 0018 0120     		movs	r0, #1
  53 001a FFF7FEFF 		bl	Pin1_dir2_Write
  54              	.LVL3:
  68:..\..\..\3semesterProjekt_repository\Ultrasoundv2\Ultrasoundv2.cydsn/MotorApp.c ****     Pin2_dir1_Write(0);
  55              		.loc 1 68 0
  56 001e 0020     		movs	r0, #0
  57 0020 FFF7FEFF 		bl	Pin2_dir1_Write
  58              	.LVL4:
  69:..\..\..\3semesterProjekt_repository\Ultrasoundv2\Ultrasoundv2.cydsn/MotorApp.c ****     Pin2_dir2_Write(1);
  59              		.loc 1 69 0
  60 0024 0120     		movs	r0, #1
  61 0026 FFF7FEFF 		bl	Pin2_dir2_Write
  62              	.LVL5:
  70:..\..\..\3semesterProjekt_repository\Ultrasoundv2\Ultrasoundv2.cydsn/MotorApp.c ****     
  71:..\..\..\3semesterProjekt_repository\Ultrasoundv2\Ultrasoundv2.cydsn/MotorApp.c ****     
  72:..\..\..\3semesterProjekt_repository\Ultrasoundv2\Ultrasoundv2.cydsn/MotorApp.c ****     motorPWM_1_WriteCompare(80); //Set speed to current drive state on PWM 1
  63              		.loc 1 72 0
  64 002a 5020     		movs	r0, #80
  65 002c FFF7FEFF 		bl	motorPWM_1_WriteCompare
  66              	.LVL6:
  73:..\..\..\3semesterProjekt_repository\Ultrasoundv2\Ultrasoundv2.cydsn/MotorApp.c ****     motorPWM_2_WriteCompare(80); //Set speed to current drive state on PWM 2
  67              		.loc 1 73 0
  68 0030 5020     		movs	r0, #80
  69 0032 FFF7FEFF 		bl	motorPWM_2_WriteCompare
  70              	.LVL7:
  74:..\..\..\3semesterProjekt_repository\Ultrasoundv2\Ultrasoundv2.cydsn/MotorApp.c ****     
  75:..\..\..\3semesterProjekt_repository\Ultrasoundv2\Ultrasoundv2.cydsn/MotorApp.c ****     motorPWM_1_Start();
  71              		.loc 1 75 0
  72 0036 FFF7FEFF 		bl	motorPWM_1_Start
  73              	.LVL8:
  76:..\..\..\3semesterProjekt_repository\Ultrasoundv2\Ultrasoundv2.cydsn/MotorApp.c ****     motorPWM_2_Start();
  74              		.loc 1 76 0
  75 003a FFF7FEFF 		bl	motorPWM_2_Start
  76              	.LVL9:
  77              	.L1:
  78 003e 08BD     		pop	{r3, pc}
  79              	.L5:
  80              		.align	2
  81              	.L4:
  82 0040 00000000 		.word	running_
  83              		.cfi_endproc
  84              	.LFE66:
  85              		.size	driveForwards, .-driveForwards
  86              		.section	.text.driveBackwards,"ax",%progbits
  87              		.align	2
  88              		.global	driveBackwards
  89              		.thumb
  90              		.thumb_func
  91              		.type	driveBackwards, %function
  92              	driveBackwards:
  93              	.LFB67:
  77:..\..\..\3semesterProjekt_repository\Ultrasoundv2\Ultrasoundv2.cydsn/MotorApp.c ****     }
  78:..\..\..\3semesterProjekt_repository\Ultrasoundv2\Ultrasoundv2.cydsn/MotorApp.c **** }
ARM GAS  C:\Users\LUCASI~1\AppData\Local\Temp\ccFFyRmk.s 			page 4


  79:..\..\..\3semesterProjekt_repository\Ultrasoundv2\Ultrasoundv2.cydsn/MotorApp.c **** 
  80:..\..\..\3semesterProjekt_repository\Ultrasoundv2\Ultrasoundv2.cydsn/MotorApp.c **** void driveBackwards()                       //Denne funktion sætter motoren til at køre bagud
  81:..\..\..\3semesterProjekt_repository\Ultrasoundv2\Ultrasoundv2.cydsn/MotorApp.c **** {
  94              		.loc 1 81 0
  95              		.cfi_startproc
  96              		@ args = 0, pretend = 0, frame = 0
  97              		@ frame_needed = 0, uses_anonymous_args = 0
  98 0000 08B5     		push	{r3, lr}
  99              		.cfi_def_cfa_offset 8
 100              		.cfi_offset 3, -8
 101              		.cfi_offset 14, -4
  82:..\..\..\3semesterProjekt_repository\Ultrasoundv2\Ultrasoundv2.cydsn/MotorApp.c ****     if(running_ == 1)
 102              		.loc 1 82 0
 103 0002 0F4B     		ldr	r3, .L9
 104 0004 1B68     		ldr	r3, [r3]
 105 0006 012B     		cmp	r3, #1
 106 0008 19D1     		bne	.L6
  83:..\..\..\3semesterProjekt_repository\Ultrasoundv2\Ultrasoundv2.cydsn/MotorApp.c ****     {
  84:..\..\..\3semesterProjekt_repository\Ultrasoundv2\Ultrasoundv2.cydsn/MotorApp.c ****     motorPWM_1_Stop();
 107              		.loc 1 84 0
 108 000a FFF7FEFF 		bl	motorPWM_1_Stop
 109              	.LVL10:
  85:..\..\..\3semesterProjekt_repository\Ultrasoundv2\Ultrasoundv2.cydsn/MotorApp.c ****     motorPWM_2_Stop();
 110              		.loc 1 85 0
 111 000e FFF7FEFF 		bl	motorPWM_2_Stop
 112              	.LVL11:
  86:..\..\..\3semesterProjekt_repository\Ultrasoundv2\Ultrasoundv2.cydsn/MotorApp.c ****     
  87:..\..\..\3semesterProjekt_repository\Ultrasoundv2\Ultrasoundv2.cydsn/MotorApp.c ****     Pin1_dir1_Write(1);
 113              		.loc 1 87 0
 114 0012 0120     		movs	r0, #1
 115 0014 FFF7FEFF 		bl	Pin1_dir1_Write
 116              	.LVL12:
  88:..\..\..\3semesterProjekt_repository\Ultrasoundv2\Ultrasoundv2.cydsn/MotorApp.c ****     Pin1_dir2_Write(0);
 117              		.loc 1 88 0
 118 0018 0020     		movs	r0, #0
 119 001a FFF7FEFF 		bl	Pin1_dir2_Write
 120              	.LVL13:
  89:..\..\..\3semesterProjekt_repository\Ultrasoundv2\Ultrasoundv2.cydsn/MotorApp.c ****     Pin2_dir1_Write(1);
 121              		.loc 1 89 0
 122 001e 0120     		movs	r0, #1
 123 0020 FFF7FEFF 		bl	Pin2_dir1_Write
 124              	.LVL14:
  90:..\..\..\3semesterProjekt_repository\Ultrasoundv2\Ultrasoundv2.cydsn/MotorApp.c ****     Pin2_dir2_Write(0);
 125              		.loc 1 90 0
 126 0024 0020     		movs	r0, #0
 127 0026 FFF7FEFF 		bl	Pin2_dir2_Write
 128              	.LVL15:
  91:..\..\..\3semesterProjekt_repository\Ultrasoundv2\Ultrasoundv2.cydsn/MotorApp.c ****     
  92:..\..\..\3semesterProjekt_repository\Ultrasoundv2\Ultrasoundv2.cydsn/MotorApp.c ****     motorPWM_1_WriteCompare(80); //Set speed to current drive state on PWM 1
 129              		.loc 1 92 0
 130 002a 5020     		movs	r0, #80
 131 002c FFF7FEFF 		bl	motorPWM_1_WriteCompare
 132              	.LVL16:
  93:..\..\..\3semesterProjekt_repository\Ultrasoundv2\Ultrasoundv2.cydsn/MotorApp.c ****     motorPWM_2_WriteCompare(80); //Set speed to current drive state on PWM 2
 133              		.loc 1 93 0
 134 0030 5020     		movs	r0, #80
 135 0032 FFF7FEFF 		bl	motorPWM_2_WriteCompare
ARM GAS  C:\Users\LUCASI~1\AppData\Local\Temp\ccFFyRmk.s 			page 5


 136              	.LVL17:
  94:..\..\..\3semesterProjekt_repository\Ultrasoundv2\Ultrasoundv2.cydsn/MotorApp.c ****     
  95:..\..\..\3semesterProjekt_repository\Ultrasoundv2\Ultrasoundv2.cydsn/MotorApp.c ****     motorPWM_1_Start();
 137              		.loc 1 95 0
 138 0036 FFF7FEFF 		bl	motorPWM_1_Start
 139              	.LVL18:
  96:..\..\..\3semesterProjekt_repository\Ultrasoundv2\Ultrasoundv2.cydsn/MotorApp.c ****     motorPWM_2_Start();
 140              		.loc 1 96 0
 141 003a FFF7FEFF 		bl	motorPWM_2_Start
 142              	.LVL19:
 143              	.L6:
 144 003e 08BD     		pop	{r3, pc}
 145              	.L10:
 146              		.align	2
 147              	.L9:
 148 0040 00000000 		.word	running_
 149              		.cfi_endproc
 150              	.LFE67:
 151              		.size	driveBackwards, .-driveBackwards
 152              		.section	.text.motorStop,"ax",%progbits
 153              		.align	2
 154              		.global	motorStop
 155              		.thumb
 156              		.thumb_func
 157              		.type	motorStop, %function
 158              	motorStop:
 159              	.LFB68:
  97:..\..\..\3semesterProjekt_repository\Ultrasoundv2\Ultrasoundv2.cydsn/MotorApp.c ****     }
  98:..\..\..\3semesterProjekt_repository\Ultrasoundv2\Ultrasoundv2.cydsn/MotorApp.c **** }
  99:..\..\..\3semesterProjekt_repository\Ultrasoundv2\Ultrasoundv2.cydsn/MotorApp.c **** 
 100:..\..\..\3semesterProjekt_repository\Ultrasoundv2\Ultrasoundv2.cydsn/MotorApp.c **** void motorStop()
 101:..\..\..\3semesterProjekt_repository\Ultrasoundv2\Ultrasoundv2.cydsn/MotorApp.c **** {
 160              		.loc 1 101 0
 161              		.cfi_startproc
 162              		@ args = 0, pretend = 0, frame = 0
 163              		@ frame_needed = 0, uses_anonymous_args = 0
 164 0000 08B5     		push	{r3, lr}
 165              		.cfi_def_cfa_offset 8
 166              		.cfi_offset 3, -8
 167              		.cfi_offset 14, -4
 102:..\..\..\3semesterProjekt_repository\Ultrasoundv2\Ultrasoundv2.cydsn/MotorApp.c ****     
 103:..\..\..\3semesterProjekt_repository\Ultrasoundv2\Ultrasoundv2.cydsn/MotorApp.c ****     
 104:..\..\..\3semesterProjekt_repository\Ultrasoundv2\Ultrasoundv2.cydsn/MotorApp.c ****     motorPWM_1_Stop();
 168              		.loc 1 104 0
 169 0002 FFF7FEFF 		bl	motorPWM_1_Stop
 170              	.LVL20:
 105:..\..\..\3semesterProjekt_repository\Ultrasoundv2\Ultrasoundv2.cydsn/MotorApp.c ****     motorPWM_2_Stop();
 171              		.loc 1 105 0
 172 0006 FFF7FEFF 		bl	motorPWM_2_Stop
 173              	.LVL21:
 174 000a 08BD     		pop	{r3, pc}
 175              		.cfi_endproc
 176              	.LFE68:
 177              		.size	motorStop, .-motorStop
 178              		.section	.text.changeSpeed,"ax",%progbits
 179              		.align	2
 180              		.global	changeSpeed
ARM GAS  C:\Users\LUCASI~1\AppData\Local\Temp\ccFFyRmk.s 			page 6


 181              		.thumb
 182              		.thumb_func
 183              		.type	changeSpeed, %function
 184              	changeSpeed:
 185              	.LFB69:
 106:..\..\..\3semesterProjekt_repository\Ultrasoundv2\Ultrasoundv2.cydsn/MotorApp.c ****     
 107:..\..\..\3semesterProjekt_repository\Ultrasoundv2\Ultrasoundv2.cydsn/MotorApp.c **** }
 108:..\..\..\3semesterProjekt_repository\Ultrasoundv2\Ultrasoundv2.cydsn/MotorApp.c **** 
 109:..\..\..\3semesterProjekt_repository\Ultrasoundv2\Ultrasoundv2.cydsn/MotorApp.c **** void changeSpeed()                          //Denne funktion ændre placering i driveState, og herm
 110:..\..\..\3semesterProjekt_repository\Ultrasoundv2\Ultrasoundv2.cydsn/MotorApp.c **** {
 186              		.loc 1 110 0
 187              		.cfi_startproc
 188              		@ args = 0, pretend = 0, frame = 0
 189              		@ frame_needed = 0, uses_anonymous_args = 0
 190 0000 08B5     		push	{r3, lr}
 191              		.cfi_def_cfa_offset 8
 192              		.cfi_offset 3, -8
 193              		.cfi_offset 14, -4
 111:..\..\..\3semesterProjekt_repository\Ultrasoundv2\Ultrasoundv2.cydsn/MotorApp.c ****     //state = 3;
 112:..\..\..\3semesterProjekt_repository\Ultrasoundv2\Ultrasoundv2.cydsn/MotorApp.c **** 
 113:..\..\..\3semesterProjekt_repository\Ultrasoundv2\Ultrasoundv2.cydsn/MotorApp.c ****     motorPWM_1_Stop();
 194              		.loc 1 113 0
 195 0002 FFF7FEFF 		bl	motorPWM_1_Stop
 196              	.LVL22:
 114:..\..\..\3semesterProjekt_repository\Ultrasoundv2\Ultrasoundv2.cydsn/MotorApp.c ****     motorPWM_2_Stop();
 197              		.loc 1 114 0
 198 0006 FFF7FEFF 		bl	motorPWM_2_Stop
 199              	.LVL23:
 115:..\..\..\3semesterProjekt_repository\Ultrasoundv2\Ultrasoundv2.cydsn/MotorApp.c ****     
 116:..\..\..\3semesterProjekt_repository\Ultrasoundv2\Ultrasoundv2.cydsn/MotorApp.c ****     if(driveState[state][0] > 9 && driveState[state][0] < 71)     //sikre at arrayet ikke forlades
 200              		.loc 1 116 0
 201 000a 154B     		ldr	r3, .L17
 202 000c 1A68     		ldr	r2, [r3]
 203 000e 154B     		ldr	r3, .L17+4
 204 0010 53F83230 		ldr	r3, [r3, r2, lsl #3]
 205 0014 0A3B     		subs	r3, r3, #10
 206 0016 3C2B     		cmp	r3, #60
 207 0018 09D8     		bhi	.L14
 117:..\..\..\3semesterProjekt_repository\Ultrasoundv2\Ultrasoundv2.cydsn/MotorApp.c ****     {
 118:..\..\..\3semesterProjekt_repository\Ultrasoundv2\Ultrasoundv2.cydsn/MotorApp.c ****         motorPWM_1_WritePeriod(170);
 208              		.loc 1 118 0
 209 001a AA20     		movs	r0, #170
 210 001c FFF7FEFF 		bl	motorPWM_1_WritePeriod
 211              	.LVL24:
 119:..\..\..\3semesterProjekt_repository\Ultrasoundv2\Ultrasoundv2.cydsn/MotorApp.c ****         motorPWM_1_WriteCompare(driveState[state][0]); //Set speed to current drive state on PWM 1 
 212              		.loc 1 119 0
 213 0020 0F4B     		ldr	r3, .L17
 214 0022 1A68     		ldr	r2, [r3]
 215 0024 0F4B     		ldr	r3, .L17+4
 216 0026 13F83200 		ldrb	r0, [r3, r2, lsl #3]	@ zero_extendqisi2
 217 002a FFF7FEFF 		bl	motorPWM_1_WriteCompare
 218              	.LVL25:
 219              	.L14:
 120:..\..\..\3semesterProjekt_repository\Ultrasoundv2\Ultrasoundv2.cydsn/MotorApp.c ****     }
 121:..\..\..\3semesterProjekt_repository\Ultrasoundv2\Ultrasoundv2.cydsn/MotorApp.c ****     if(driveState[state][1] > 39 && driveState[state][1] < 101)     //sikre at arrayet ikke forlade
 220              		.loc 1 121 0
 221 002e 0C4B     		ldr	r3, .L17
ARM GAS  C:\Users\LUCASI~1\AppData\Local\Temp\ccFFyRmk.s 			page 7


 222 0030 1A68     		ldr	r2, [r3]
 223 0032 0C4B     		ldr	r3, .L17+4
 224 0034 03EBC203 		add	r3, r3, r2, lsl #3
 225 0038 5B68     		ldr	r3, [r3, #4]
 226 003a 283B     		subs	r3, r3, #40
 227 003c 3C2B     		cmp	r3, #60
 228 003e 0AD8     		bhi	.L15
 122:..\..\..\3semesterProjekt_repository\Ultrasoundv2\Ultrasoundv2.cydsn/MotorApp.c ****     {
 123:..\..\..\3semesterProjekt_repository\Ultrasoundv2\Ultrasoundv2.cydsn/MotorApp.c ****         motorPWM_2_WritePeriod(170);
 229              		.loc 1 123 0
 230 0040 AA20     		movs	r0, #170
 231 0042 FFF7FEFF 		bl	motorPWM_2_WritePeriod
 232              	.LVL26:
 124:..\..\..\3semesterProjekt_repository\Ultrasoundv2\Ultrasoundv2.cydsn/MotorApp.c ****         motorPWM_2_WriteCompare(driveState[state][1]); //Set speed to current drive state on PWM 2 
 233              		.loc 1 124 0
 234 0046 064B     		ldr	r3, .L17
 235 0048 1A68     		ldr	r2, [r3]
 236 004a 064B     		ldr	r3, .L17+4
 237 004c 03EBC203 		add	r3, r3, r2, lsl #3
 238 0050 1879     		ldrb	r0, [r3, #4]	@ zero_extendqisi2
 239 0052 FFF7FEFF 		bl	motorPWM_2_WriteCompare
 240              	.LVL27:
 241              	.L15:
 125:..\..\..\3semesterProjekt_repository\Ultrasoundv2\Ultrasoundv2.cydsn/MotorApp.c ****     }
 126:..\..\..\3semesterProjekt_repository\Ultrasoundv2\Ultrasoundv2.cydsn/MotorApp.c ****     
 127:..\..\..\3semesterProjekt_repository\Ultrasoundv2\Ultrasoundv2.cydsn/MotorApp.c ****     motorPWM_1_Start();
 242              		.loc 1 127 0
 243 0056 FFF7FEFF 		bl	motorPWM_1_Start
 244              	.LVL28:
 128:..\..\..\3semesterProjekt_repository\Ultrasoundv2\Ultrasoundv2.cydsn/MotorApp.c ****     motorPWM_2_Start();
 245              		.loc 1 128 0
 246 005a FFF7FEFF 		bl	motorPWM_2_Start
 247              	.LVL29:
 248 005e 08BD     		pop	{r3, pc}
 249              	.L18:
 250              		.align	2
 251              	.L17:
 252 0060 00000000 		.word	state
 253 0064 00000000 		.word	.LANCHOR0
 254              		.cfi_endproc
 255              	.LFE69:
 256              		.size	changeSpeed, .-changeSpeed
 257              		.section	.text.changeState,"ax",%progbits
 258              		.align	2
 259              		.global	changeState
 260              		.thumb
 261              		.thumb_func
 262              		.type	changeState, %function
 263              	changeState:
 264              	.LFB65:
  40:..\..\..\3semesterProjekt_repository\Ultrasoundv2\Ultrasoundv2.cydsn/MotorApp.c ****   
 265              		.loc 1 40 0
 266              		.cfi_startproc
 267              		@ args = 0, pretend = 0, frame = 0
 268              		@ frame_needed = 0, uses_anonymous_args = 0
 269              	.LVL30:
 270 0000 08B5     		push	{r3, lr}
ARM GAS  C:\Users\LUCASI~1\AppData\Local\Temp\ccFFyRmk.s 			page 8


 271              		.cfi_def_cfa_offset 8
 272              		.cfi_offset 3, -8
 273              		.cfi_offset 14, -4
  43:..\..\..\3semesterProjekt_repository\Ultrasoundv2\Ultrasoundv2.cydsn/MotorApp.c ****     {
 274              		.loc 1 43 0
 275 0002 0128     		cmp	r0, #1
 276 0004 02D0     		beq	.L20
  43:..\..\..\3semesterProjekt_repository\Ultrasoundv2\Ultrasoundv2.cydsn/MotorApp.c ****     {
 277              		.loc 1 43 0 is_stmt 0 discriminator 1
 278 0006 B0F1FF3F 		cmp	r0, #-1
 279 000a 15D1     		bne	.L19
 280              	.L20:
  45:..\..\..\3semesterProjekt_repository\Ultrasoundv2\Ultrasoundv2.cydsn/MotorApp.c ****         {
 281              		.loc 1 45 0 is_stmt 1
 282 000c 0B4B     		ldr	r3, .L24
 283 000e 1B68     		ldr	r3, [r3]
 284 0010 002B     		cmp	r3, #0
 285 0012 08DD     		ble	.L22
  45:..\..\..\3semesterProjekt_repository\Ultrasoundv2\Ultrasoundv2.cydsn/MotorApp.c ****         {
 286              		.loc 1 45 0 is_stmt 0 discriminator 1
 287 0014 B0F1FF3F 		cmp	r0, #-1
 288 0018 05D1     		bne	.L22
  47:..\..\..\3semesterProjekt_repository\Ultrasoundv2\Ultrasoundv2.cydsn/MotorApp.c ****             changeSpeed();
 289              		.loc 1 47 0 is_stmt 1
 290 001a 1844     		add	r0, r0, r3
 291              	.LVL31:
 292 001c 074B     		ldr	r3, .L24
 293 001e 1860     		str	r0, [r3]
  48:..\..\..\3semesterProjekt_repository\Ultrasoundv2\Ultrasoundv2.cydsn/MotorApp.c ****         }
 294              		.loc 1 48 0
 295 0020 FFF7FEFF 		bl	changeSpeed
 296              	.LVL32:
 297 0024 08BD     		pop	{r3, pc}
 298              	.LVL33:
 299              	.L22:
  50:..\..\..\3semesterProjekt_repository\Ultrasoundv2\Ultrasoundv2.cydsn/MotorApp.c ****         {
 300              		.loc 1 50 0
 301 0026 052B     		cmp	r3, #5
 302 0028 06DC     		bgt	.L19
  50:..\..\..\3semesterProjekt_repository\Ultrasoundv2\Ultrasoundv2.cydsn/MotorApp.c ****         {
 303              		.loc 1 50 0 is_stmt 0 discriminator 1
 304 002a 0128     		cmp	r0, #1
 305 002c 04D1     		bne	.L19
  52:..\..\..\3semesterProjekt_repository\Ultrasoundv2\Ultrasoundv2.cydsn/MotorApp.c ****             changeSpeed();
 306              		.loc 1 52 0 is_stmt 1
 307 002e 1844     		add	r0, r0, r3
 308              	.LVL34:
 309 0030 024B     		ldr	r3, .L24
 310 0032 1860     		str	r0, [r3]
  53:..\..\..\3semesterProjekt_repository\Ultrasoundv2\Ultrasoundv2.cydsn/MotorApp.c ****         } 
 311              		.loc 1 53 0
 312 0034 FFF7FEFF 		bl	changeSpeed
 313              	.LVL35:
 314              	.L19:
 315 0038 08BD     		pop	{r3, pc}
 316              	.L25:
 317 003a 00BF     		.align	2
ARM GAS  C:\Users\LUCASI~1\AppData\Local\Temp\ccFFyRmk.s 			page 9


 318              	.L24:
 319 003c 00000000 		.word	state
 320              		.cfi_endproc
 321              	.LFE65:
 322              		.size	changeState, .-changeState
 323              		.section	.text.speedSelect,"ax",%progbits
 324              		.align	2
 325              		.global	speedSelect
 326              		.thumb
 327              		.thumb_func
 328              		.type	speedSelect, %function
 329              	speedSelect:
 330              	.LFB64:
  21:..\..\..\3semesterProjekt_repository\Ultrasoundv2\Ultrasoundv2.cydsn/MotorApp.c ****     if(randState == 0)                      //Når randstate er 0, laves en ny randstate værdi ime
 331              		.loc 1 21 0
 332              		.cfi_startproc
 333              		@ args = 0, pretend = 0, frame = 0
 334              		@ frame_needed = 0, uses_anonymous_args = 0
 335 0000 08B5     		push	{r3, lr}
 336              		.cfi_def_cfa_offset 8
 337              		.cfi_offset 3, -8
 338              		.cfi_offset 14, -4
  22:..\..\..\3semesterProjekt_repository\Ultrasoundv2\Ultrasoundv2.cydsn/MotorApp.c ****     {
 339              		.loc 1 22 0
 340 0002 174B     		ldr	r3, .L31
 341 0004 1B68     		ldr	r3, [r3]
 342 0006 9BB9     		cbnz	r3, .L27
  24:..\..\..\3semesterProjekt_repository\Ultrasoundv2\Ultrasoundv2.cydsn/MotorApp.c ****         randState = rand() % 7 - 3;
 343              		.loc 1 24 0
 344 0008 0020     		movs	r0, #0
 345 000a FFF7FEFF 		bl	time
 346              	.LVL36:
 347 000e FFF7FEFF 		bl	srand
 348              	.LVL37:
  25:..\..\..\3semesterProjekt_repository\Ultrasoundv2\Ultrasoundv2.cydsn/MotorApp.c ****     }
 349              		.loc 1 25 0
 350 0012 FFF7FEFF 		bl	rand
 351              	.LVL38:
 352 0016 134A     		ldr	r2, .L31+4
 353 0018 80FB0223 		smull	r2, r3, r0, r2
 354 001c C218     		adds	r2, r0, r3
 355 001e C317     		asrs	r3, r0, #31
 356 0020 C3EBA203 		rsb	r3, r3, r2, asr #2
 357 0024 C3EBC303 		rsb	r3, r3, r3, lsl #3
 358 0028 C31A     		subs	r3, r0, r3
 359 002a 033B     		subs	r3, r3, #3
 360 002c 0C4A     		ldr	r2, .L31
 361 002e 1360     		str	r3, [r2]
 362              	.L27:
  27:..\..\..\3semesterProjekt_repository\Ultrasoundv2\Ultrasoundv2.cydsn/MotorApp.c ****     {
 363              		.loc 1 27 0
 364 0030 0B4B     		ldr	r3, .L31
 365 0032 1B68     		ldr	r3, [r3]
 366 0034 002B     		cmp	r3, #0
 367 0036 08DA     		bge	.L28
  29:..\..\..\3semesterProjekt_repository\Ultrasoundv2\Ultrasoundv2.cydsn/MotorApp.c ****         randState++;                        //randsdtate forøges så den til sidst rammer 0 og der
 368              		.loc 1 29 0
ARM GAS  C:\Users\LUCASI~1\AppData\Local\Temp\ccFFyRmk.s 			page 10


 369 0038 4FF0FF30 		mov	r0, #-1
 370 003c FFF7FEFF 		bl	changeState
 371              	.LVL39:
  30:..\..\..\3semesterProjekt_repository\Ultrasoundv2\Ultrasoundv2.cydsn/MotorApp.c ****     }
 372              		.loc 1 30 0
 373 0040 074A     		ldr	r2, .L31
 374 0042 1368     		ldr	r3, [r2]
 375 0044 0133     		adds	r3, r3, #1
 376 0046 1360     		str	r3, [r2]
 377 0048 08BD     		pop	{r3, pc}
 378              	.L28:
  32:..\..\..\3semesterProjekt_repository\Ultrasoundv2\Ultrasoundv2.cydsn/MotorApp.c ****     {
 379              		.loc 1 32 0
 380 004a 002B     		cmp	r3, #0
 381 004c 06DD     		ble	.L26
  34:..\..\..\3semesterProjekt_repository\Ultrasoundv2\Ultrasoundv2.cydsn/MotorApp.c ****         randState--;                        //randsdtate trækkes 1 fra så den til sidst rammer 0 
 382              		.loc 1 34 0
 383 004e 0120     		movs	r0, #1
 384 0050 FFF7FEFF 		bl	changeState
 385              	.LVL40:
  35:..\..\..\3semesterProjekt_repository\Ultrasoundv2\Ultrasoundv2.cydsn/MotorApp.c ****     }
 386              		.loc 1 35 0
 387 0054 024A     		ldr	r2, .L31
 388 0056 1368     		ldr	r3, [r2]
 389 0058 013B     		subs	r3, r3, #1
 390 005a 1360     		str	r3, [r2]
 391              	.L26:
 392 005c 08BD     		pop	{r3, pc}
 393              	.L32:
 394 005e 00BF     		.align	2
 395              	.L31:
 396 0060 00000000 		.word	randState
 397 0064 93244992 		.word	-1840700269
 398              		.cfi_endproc
 399              	.LFE64:
 400              		.size	speedSelect, .-speedSelect
 401              		.section	.text.DelayBased90Turn,"ax",%progbits
 402              		.align	2
 403              		.global	DelayBased90Turn
 404              		.thumb
 405              		.thumb_func
 406              		.type	DelayBased90Turn, %function
 407              	DelayBased90Turn:
 408              	.LFB70:
 129:..\..\..\3semesterProjekt_repository\Ultrasoundv2\Ultrasoundv2.cydsn/MotorApp.c **** }
 130:..\..\..\3semesterProjekt_repository\Ultrasoundv2\Ultrasoundv2.cydsn/MotorApp.c **** 
 131:..\..\..\3semesterProjekt_repository\Ultrasoundv2\Ultrasoundv2.cydsn/MotorApp.c **** void DelayBased90Turn(int dir)
 132:..\..\..\3semesterProjekt_repository\Ultrasoundv2\Ultrasoundv2.cydsn/MotorApp.c **** {
 409              		.loc 1 132 0
 410              		.cfi_startproc
 411              		@ args = 0, pretend = 0, frame = 0
 412              		@ frame_needed = 0, uses_anonymous_args = 0
 413              	.LVL41:
 133:..\..\..\3semesterProjekt_repository\Ultrasoundv2\Ultrasoundv2.cydsn/MotorApp.c ****     if(running_ == 1)
 414              		.loc 1 133 0
 415 0000 214B     		ldr	r3, .L40
 416 0002 1B68     		ldr	r3, [r3]
ARM GAS  C:\Users\LUCASI~1\AppData\Local\Temp\ccFFyRmk.s 			page 11


 417 0004 012B     		cmp	r3, #1
 418 0006 3ED1     		bne	.L39
 132:..\..\..\3semesterProjekt_repository\Ultrasoundv2\Ultrasoundv2.cydsn/MotorApp.c ****     if(running_ == 1)
 419              		.loc 1 132 0
 420 0008 10B5     		push	{r4, lr}
 421              		.cfi_def_cfa_offset 8
 422              		.cfi_offset 4, -8
 423              		.cfi_offset 14, -4
 424 000a 0446     		mov	r4, r0
 134:..\..\..\3semesterProjekt_repository\Ultrasoundv2\Ultrasoundv2.cydsn/MotorApp.c ****     {
 135:..\..\..\3semesterProjekt_repository\Ultrasoundv2\Ultrasoundv2.cydsn/MotorApp.c ****     motorPWM_1_Stop();
 425              		.loc 1 135 0
 426 000c FFF7FEFF 		bl	motorPWM_1_Stop
 427              	.LVL42:
 136:..\..\..\3semesterProjekt_repository\Ultrasoundv2\Ultrasoundv2.cydsn/MotorApp.c ****     motorPWM_2_Stop();
 428              		.loc 1 136 0
 429 0010 FFF7FEFF 		bl	motorPWM_2_Stop
 430              	.LVL43:
 137:..\..\..\3semesterProjekt_repository\Ultrasoundv2\Ultrasoundv2.cydsn/MotorApp.c ****     
 138:..\..\..\3semesterProjekt_repository\Ultrasoundv2\Ultrasoundv2.cydsn/MotorApp.c ****     CyDelay(250);
 431              		.loc 1 138 0
 432 0014 FA20     		movs	r0, #250
 433 0016 FFF7FEFF 		bl	CyDelay
 434              	.LVL44:
 139:..\..\..\3semesterProjekt_repository\Ultrasoundv2\Ultrasoundv2.cydsn/MotorApp.c ****     
 140:..\..\..\3semesterProjekt_repository\Ultrasoundv2\Ultrasoundv2.cydsn/MotorApp.c ****     switch(dir)
 435              		.loc 1 140 0
 436 001a 012C     		cmp	r4, #1
 437 001c 02D0     		beq	.L36
 438 001e 022C     		cmp	r4, #2
 439 0020 0DD0     		beq	.L37
 440 0022 18E0     		b	.L35
 441              	.L36:
 141:..\..\..\3semesterProjekt_repository\Ultrasoundv2\Ultrasoundv2.cydsn/MotorApp.c ****     {
 142:..\..\..\3semesterProjekt_repository\Ultrasoundv2\Ultrasoundv2.cydsn/MotorApp.c ****         case 1 :
 143:..\..\..\3semesterProjekt_repository\Ultrasoundv2\Ultrasoundv2.cydsn/MotorApp.c ****             Pin1_dir1_Write(0);
 442              		.loc 1 143 0
 443 0024 0020     		movs	r0, #0
 444 0026 FFF7FEFF 		bl	Pin1_dir1_Write
 445              	.LVL45:
 144:..\..\..\3semesterProjekt_repository\Ultrasoundv2\Ultrasoundv2.cydsn/MotorApp.c ****             Pin1_dir2_Write(1);
 446              		.loc 1 144 0
 447 002a 0120     		movs	r0, #1
 448 002c FFF7FEFF 		bl	Pin1_dir2_Write
 449              	.LVL46:
 145:..\..\..\3semesterProjekt_repository\Ultrasoundv2\Ultrasoundv2.cydsn/MotorApp.c ****             Pin2_dir1_Write(1);
 450              		.loc 1 145 0
 451 0030 0120     		movs	r0, #1
 452 0032 FFF7FEFF 		bl	Pin2_dir1_Write
 453              	.LVL47:
 146:..\..\..\3semesterProjekt_repository\Ultrasoundv2\Ultrasoundv2.cydsn/MotorApp.c ****             Pin2_dir2_Write(0);
 454              		.loc 1 146 0
 455 0036 0020     		movs	r0, #0
 456 0038 FFF7FEFF 		bl	Pin2_dir2_Write
 457              	.LVL48:
 147:..\..\..\3semesterProjekt_repository\Ultrasoundv2\Ultrasoundv2.cydsn/MotorApp.c ****             break;
 458              		.loc 1 147 0
ARM GAS  C:\Users\LUCASI~1\AppData\Local\Temp\ccFFyRmk.s 			page 12


 459 003c 0BE0     		b	.L35
 460              	.L37:
 148:..\..\..\3semesterProjekt_repository\Ultrasoundv2\Ultrasoundv2.cydsn/MotorApp.c ****         case 2 :
 149:..\..\..\3semesterProjekt_repository\Ultrasoundv2\Ultrasoundv2.cydsn/MotorApp.c ****             Pin1_dir2_Write(0);
 461              		.loc 1 149 0
 462 003e 0020     		movs	r0, #0
 463 0040 FFF7FEFF 		bl	Pin1_dir2_Write
 464              	.LVL49:
 150:..\..\..\3semesterProjekt_repository\Ultrasoundv2\Ultrasoundv2.cydsn/MotorApp.c ****             Pin1_dir1_Write(1);
 465              		.loc 1 150 0
 466 0044 0120     		movs	r0, #1
 467 0046 FFF7FEFF 		bl	Pin1_dir1_Write
 468              	.LVL50:
 151:..\..\..\3semesterProjekt_repository\Ultrasoundv2\Ultrasoundv2.cydsn/MotorApp.c ****             Pin2_dir2_Write(1);
 469              		.loc 1 151 0
 470 004a 0120     		movs	r0, #1
 471 004c FFF7FEFF 		bl	Pin2_dir2_Write
 472              	.LVL51:
 152:..\..\..\3semesterProjekt_repository\Ultrasoundv2\Ultrasoundv2.cydsn/MotorApp.c ****             Pin2_dir1_Write(0);
 473              		.loc 1 152 0
 474 0050 0020     		movs	r0, #0
 475 0052 FFF7FEFF 		bl	Pin2_dir1_Write
 476              	.LVL52:
 477              	.L35:
 153:..\..\..\3semesterProjekt_repository\Ultrasoundv2\Ultrasoundv2.cydsn/MotorApp.c ****             break;
 154:..\..\..\3semesterProjekt_repository\Ultrasoundv2\Ultrasoundv2.cydsn/MotorApp.c ****     }
 155:..\..\..\3semesterProjekt_repository\Ultrasoundv2\Ultrasoundv2.cydsn/MotorApp.c ****     
 156:..\..\..\3semesterProjekt_repository\Ultrasoundv2\Ultrasoundv2.cydsn/MotorApp.c ****     
 157:..\..\..\3semesterProjekt_repository\Ultrasoundv2\Ultrasoundv2.cydsn/MotorApp.c ****     motorPWM_1_WriteCompare(100);
 478              		.loc 1 157 0
 479 0056 6420     		movs	r0, #100
 480 0058 FFF7FEFF 		bl	motorPWM_1_WriteCompare
 481              	.LVL53:
 158:..\..\..\3semesterProjekt_repository\Ultrasoundv2\Ultrasoundv2.cydsn/MotorApp.c ****     motorPWM_2_WriteCompare(100);
 482              		.loc 1 158 0
 483 005c 6420     		movs	r0, #100
 484 005e FFF7FEFF 		bl	motorPWM_2_WriteCompare
 485              	.LVL54:
 159:..\..\..\3semesterProjekt_repository\Ultrasoundv2\Ultrasoundv2.cydsn/MotorApp.c ****     
 160:..\..\..\3semesterProjekt_repository\Ultrasoundv2\Ultrasoundv2.cydsn/MotorApp.c ****     motorPWM_1_Start();
 486              		.loc 1 160 0
 487 0062 FFF7FEFF 		bl	motorPWM_1_Start
 488              	.LVL55:
 161:..\..\..\3semesterProjekt_repository\Ultrasoundv2\Ultrasoundv2.cydsn/MotorApp.c ****     motorPWM_2_Start();
 489              		.loc 1 161 0
 490 0066 FFF7FEFF 		bl	motorPWM_2_Start
 491              	.LVL56:
 162:..\..\..\3semesterProjekt_repository\Ultrasoundv2\Ultrasoundv2.cydsn/MotorApp.c ****     
 163:..\..\..\3semesterProjekt_repository\Ultrasoundv2\Ultrasoundv2.cydsn/MotorApp.c ****     CyDelay(500);
 492              		.loc 1 163 0
 493 006a 4FF4FA70 		mov	r0, #500
 494 006e FFF7FEFF 		bl	CyDelay
 495              	.LVL57:
 164:..\..\..\3semesterProjekt_repository\Ultrasoundv2\Ultrasoundv2.cydsn/MotorApp.c ****     
 165:..\..\..\3semesterProjekt_repository\Ultrasoundv2\Ultrasoundv2.cydsn/MotorApp.c ****     motorPWM_1_Stop();
 496              		.loc 1 165 0
 497 0072 FFF7FEFF 		bl	motorPWM_1_Stop
ARM GAS  C:\Users\LUCASI~1\AppData\Local\Temp\ccFFyRmk.s 			page 13


 498              	.LVL58:
 166:..\..\..\3semesterProjekt_repository\Ultrasoundv2\Ultrasoundv2.cydsn/MotorApp.c ****     motorPWM_2_Stop();
 499              		.loc 1 166 0
 500 0076 FFF7FEFF 		bl	motorPWM_2_Stop
 501              	.LVL59:
 167:..\..\..\3semesterProjekt_repository\Ultrasoundv2\Ultrasoundv2.cydsn/MotorApp.c ****     
 168:..\..\..\3semesterProjekt_repository\Ultrasoundv2\Ultrasoundv2.cydsn/MotorApp.c ****     CyDelay(250);
 502              		.loc 1 168 0
 503 007a FA20     		movs	r0, #250
 504 007c FFF7FEFF 		bl	CyDelay
 505              	.LVL60:
 169:..\..\..\3semesterProjekt_repository\Ultrasoundv2\Ultrasoundv2.cydsn/MotorApp.c ****     
 170:..\..\..\3semesterProjekt_repository\Ultrasoundv2\Ultrasoundv2.cydsn/MotorApp.c ****     driveForwards(); 
 506              		.loc 1 170 0
 507 0080 FFF7FEFF 		bl	driveForwards
 508              	.LVL61:
 509 0084 10BD     		pop	{r4, pc}
 510              	.LVL62:
 511              	.L39:
 512              		.cfi_def_cfa_offset 0
 513              		.cfi_restore 4
 514              		.cfi_restore 14
 515 0086 7047     		bx	lr
 516              	.L41:
 517              		.align	2
 518              	.L40:
 519 0088 00000000 		.word	running_
 520              		.cfi_endproc
 521              	.LFE70:
 522              		.size	DelayBased90Turn, .-DelayBased90Turn
 523              		.section	.text.DelayBased180Turn,"ax",%progbits
 524              		.align	2
 525              		.global	DelayBased180Turn
 526              		.thumb
 527              		.thumb_func
 528              		.type	DelayBased180Turn, %function
 529              	DelayBased180Turn:
 530              	.LFB71:
 171:..\..\..\3semesterProjekt_repository\Ultrasoundv2\Ultrasoundv2.cydsn/MotorApp.c ****     }
 172:..\..\..\3semesterProjekt_repository\Ultrasoundv2\Ultrasoundv2.cydsn/MotorApp.c **** }
 173:..\..\..\3semesterProjekt_repository\Ultrasoundv2\Ultrasoundv2.cydsn/MotorApp.c **** 
 174:..\..\..\3semesterProjekt_repository\Ultrasoundv2\Ultrasoundv2.cydsn/MotorApp.c **** 
 175:..\..\..\3semesterProjekt_repository\Ultrasoundv2\Ultrasoundv2.cydsn/MotorApp.c **** void DelayBased180Turn()
 176:..\..\..\3semesterProjekt_repository\Ultrasoundv2\Ultrasoundv2.cydsn/MotorApp.c **** {
 531              		.loc 1 176 0
 532              		.cfi_startproc
 533              		@ args = 0, pretend = 0, frame = 0
 534              		@ frame_needed = 0, uses_anonymous_args = 0
 535 0000 08B5     		push	{r3, lr}
 536              		.cfi_def_cfa_offset 8
 537              		.cfi_offset 3, -8
 538              		.cfi_offset 14, -4
 177:..\..\..\3semesterProjekt_repository\Ultrasoundv2\Ultrasoundv2.cydsn/MotorApp.c ****     if(running_ == 1)
 539              		.loc 1 177 0
 540 0002 1E4B     		ldr	r3, .L45
 541 0004 1B68     		ldr	r3, [r3]
 542 0006 012B     		cmp	r3, #1
ARM GAS  C:\Users\LUCASI~1\AppData\Local\Temp\ccFFyRmk.s 			page 14


 543 0008 36D1     		bne	.L42
 178:..\..\..\3semesterProjekt_repository\Ultrasoundv2\Ultrasoundv2.cydsn/MotorApp.c ****     {
 179:..\..\..\3semesterProjekt_repository\Ultrasoundv2\Ultrasoundv2.cydsn/MotorApp.c ****     motorPWM_1_Stop();
 544              		.loc 1 179 0
 545 000a FFF7FEFF 		bl	motorPWM_1_Stop
 546              	.LVL63:
 180:..\..\..\3semesterProjekt_repository\Ultrasoundv2\Ultrasoundv2.cydsn/MotorApp.c ****     motorPWM_2_Stop();
 547              		.loc 1 180 0
 548 000e FFF7FEFF 		bl	motorPWM_2_Stop
 549              	.LVL64:
 181:..\..\..\3semesterProjekt_repository\Ultrasoundv2\Ultrasoundv2.cydsn/MotorApp.c ****     
 182:..\..\..\3semesterProjekt_repository\Ultrasoundv2\Ultrasoundv2.cydsn/MotorApp.c ****     CyDelay(250);
 550              		.loc 1 182 0
 551 0012 FA20     		movs	r0, #250
 552 0014 FFF7FEFF 		bl	CyDelay
 553              	.LVL65:
 183:..\..\..\3semesterProjekt_repository\Ultrasoundv2\Ultrasoundv2.cydsn/MotorApp.c ****     
 184:..\..\..\3semesterProjekt_repository\Ultrasoundv2\Ultrasoundv2.cydsn/MotorApp.c ****     driveBackwards();
 554              		.loc 1 184 0
 555 0018 FFF7FEFF 		bl	driveBackwards
 556              	.LVL66:
 185:..\..\..\3semesterProjekt_repository\Ultrasoundv2\Ultrasoundv2.cydsn/MotorApp.c ****     
 186:..\..\..\3semesterProjekt_repository\Ultrasoundv2\Ultrasoundv2.cydsn/MotorApp.c ****     CyDelay(1000);
 557              		.loc 1 186 0
 558 001c 4FF47A70 		mov	r0, #1000
 559 0020 FFF7FEFF 		bl	CyDelay
 560              	.LVL67:
 187:..\..\..\3semesterProjekt_repository\Ultrasoundv2\Ultrasoundv2.cydsn/MotorApp.c ****     
 188:..\..\..\3semesterProjekt_repository\Ultrasoundv2\Ultrasoundv2.cydsn/MotorApp.c ****     motorPWM_1_Stop();
 561              		.loc 1 188 0
 562 0024 FFF7FEFF 		bl	motorPWM_1_Stop
 563              	.LVL68:
 189:..\..\..\3semesterProjekt_repository\Ultrasoundv2\Ultrasoundv2.cydsn/MotorApp.c ****     motorPWM_2_Stop();
 564              		.loc 1 189 0
 565 0028 FFF7FEFF 		bl	motorPWM_2_Stop
 566              	.LVL69:
 190:..\..\..\3semesterProjekt_repository\Ultrasoundv2\Ultrasoundv2.cydsn/MotorApp.c ****     
 191:..\..\..\3semesterProjekt_repository\Ultrasoundv2\Ultrasoundv2.cydsn/MotorApp.c ****     CyDelay(250);
 567              		.loc 1 191 0
 568 002c FA20     		movs	r0, #250
 569 002e FFF7FEFF 		bl	CyDelay
 570              	.LVL70:
 192:..\..\..\3semesterProjekt_repository\Ultrasoundv2\Ultrasoundv2.cydsn/MotorApp.c ****     
 193:..\..\..\3semesterProjekt_repository\Ultrasoundv2\Ultrasoundv2.cydsn/MotorApp.c ****     Pin1_dir1_Write(0);
 571              		.loc 1 193 0
 572 0032 0020     		movs	r0, #0
 573 0034 FFF7FEFF 		bl	Pin1_dir1_Write
 574              	.LVL71:
 194:..\..\..\3semesterProjekt_repository\Ultrasoundv2\Ultrasoundv2.cydsn/MotorApp.c ****     Pin1_dir2_Write(1);
 575              		.loc 1 194 0
 576 0038 0120     		movs	r0, #1
 577 003a FFF7FEFF 		bl	Pin1_dir2_Write
 578              	.LVL72:
 195:..\..\..\3semesterProjekt_repository\Ultrasoundv2\Ultrasoundv2.cydsn/MotorApp.c ****     Pin2_dir1_Write(1);
 579              		.loc 1 195 0
 580 003e 0120     		movs	r0, #1
 581 0040 FFF7FEFF 		bl	Pin2_dir1_Write
ARM GAS  C:\Users\LUCASI~1\AppData\Local\Temp\ccFFyRmk.s 			page 15


 582              	.LVL73:
 196:..\..\..\3semesterProjekt_repository\Ultrasoundv2\Ultrasoundv2.cydsn/MotorApp.c ****     Pin2_dir2_Write(0);
 583              		.loc 1 196 0
 584 0044 0020     		movs	r0, #0
 585 0046 FFF7FEFF 		bl	Pin2_dir2_Write
 586              	.LVL74:
 197:..\..\..\3semesterProjekt_repository\Ultrasoundv2\Ultrasoundv2.cydsn/MotorApp.c ****     
 198:..\..\..\3semesterProjekt_repository\Ultrasoundv2\Ultrasoundv2.cydsn/MotorApp.c ****     motorPWM_1_Start();
 587              		.loc 1 198 0
 588 004a FFF7FEFF 		bl	motorPWM_1_Start
 589              	.LVL75:
 199:..\..\..\3semesterProjekt_repository\Ultrasoundv2\Ultrasoundv2.cydsn/MotorApp.c ****     motorPWM_2_Start();
 590              		.loc 1 199 0
 591 004e FFF7FEFF 		bl	motorPWM_2_Start
 592              	.LVL76:
 200:..\..\..\3semesterProjekt_repository\Ultrasoundv2\Ultrasoundv2.cydsn/MotorApp.c ****     
 201:..\..\..\3semesterProjekt_repository\Ultrasoundv2\Ultrasoundv2.cydsn/MotorApp.c ****     motorPWM_1_WriteCompare(100);
 593              		.loc 1 201 0
 594 0052 6420     		movs	r0, #100
 595 0054 FFF7FEFF 		bl	motorPWM_1_WriteCompare
 596              	.LVL77:
 202:..\..\..\3semesterProjekt_repository\Ultrasoundv2\Ultrasoundv2.cydsn/MotorApp.c ****     motorPWM_2_WriteCompare(100);
 597              		.loc 1 202 0
 598 0058 6420     		movs	r0, #100
 599 005a FFF7FEFF 		bl	motorPWM_2_WriteCompare
 600              	.LVL78:
 203:..\..\..\3semesterProjekt_repository\Ultrasoundv2\Ultrasoundv2.cydsn/MotorApp.c ****     
 204:..\..\..\3semesterProjekt_repository\Ultrasoundv2\Ultrasoundv2.cydsn/MotorApp.c ****     CyDelay(1000);
 601              		.loc 1 204 0
 602 005e 4FF47A70 		mov	r0, #1000
 603 0062 FFF7FEFF 		bl	CyDelay
 604              	.LVL79:
 205:..\..\..\3semesterProjekt_repository\Ultrasoundv2\Ultrasoundv2.cydsn/MotorApp.c ****     
 206:..\..\..\3semesterProjekt_repository\Ultrasoundv2\Ultrasoundv2.cydsn/MotorApp.c ****     motorPWM_1_Stop();
 605              		.loc 1 206 0
 606 0066 FFF7FEFF 		bl	motorPWM_1_Stop
 607              	.LVL80:
 207:..\..\..\3semesterProjekt_repository\Ultrasoundv2\Ultrasoundv2.cydsn/MotorApp.c ****     motorPWM_2_Stop();
 608              		.loc 1 207 0
 609 006a FFF7FEFF 		bl	motorPWM_2_Stop
 610              	.LVL81:
 208:..\..\..\3semesterProjekt_repository\Ultrasoundv2\Ultrasoundv2.cydsn/MotorApp.c ****     
 209:..\..\..\3semesterProjekt_repository\Ultrasoundv2\Ultrasoundv2.cydsn/MotorApp.c ****     CyDelay(250);
 611              		.loc 1 209 0
 612 006e FA20     		movs	r0, #250
 613 0070 FFF7FEFF 		bl	CyDelay
 614              	.LVL82:
 210:..\..\..\3semesterProjekt_repository\Ultrasoundv2\Ultrasoundv2.cydsn/MotorApp.c ****     
 211:..\..\..\3semesterProjekt_repository\Ultrasoundv2\Ultrasoundv2.cydsn/MotorApp.c ****     driveForwards();
 615              		.loc 1 211 0
 616 0074 FFF7FEFF 		bl	driveForwards
 617              	.LVL83:
 618              	.L42:
 619 0078 08BD     		pop	{r3, pc}
 620              	.L46:
 621 007a 00BF     		.align	2
 622              	.L45:
ARM GAS  C:\Users\LUCASI~1\AppData\Local\Temp\ccFFyRmk.s 			page 16


 623 007c 00000000 		.word	running_
 624              		.cfi_endproc
 625              	.LFE71:
 626              		.size	DelayBased180Turn, .-DelayBased180Turn
 627              		.global	driveState
 628              		.comm	running_,4,4
 629              		.comm	randturn,4,4
 630              		.comm	randState,4,4
 631              		.comm	state,4,4
 632              		.comm	difficulty,4,4
 633              		.comm	buffer,250,4
 634              		.comm	NP_g_nFrameBufferSize,4,4
 635              		.comm	NP_g_pFrameBuffer,4,4
 636              		.comm	NP_g_bOwnsBuffer,1,1
 637              		.comm	NP_g_nDMA_TD,1,1
 638              		.comm	NP_g_nDMA_Chan,1,1
 639              		.comm	NP_g_nNumberOfPixels,4,4
 640              		.data
 641              		.align	2
 642              		.set	.LANCHOR0,. + 0
 643              		.type	driveState, %object
 644              		.size	driveState, 56
 645              	driveState:
 646 0000 0A000000 		.word	10
 647 0004 64000000 		.word	100
 648 0008 1E000000 		.word	30
 649 000c 64000000 		.word	100
 650 0010 32000000 		.word	50
 651 0014 64000000 		.word	100
 652 0018 46000000 		.word	70
 653 001c 64000000 		.word	100
 654 0020 46000000 		.word	70
 655 0024 50000000 		.word	80
 656 0028 46000000 		.word	70
 657 002c 3C000000 		.word	60
 658 0030 46000000 		.word	70
 659 0034 28000000 		.word	40
 660              		.text
 661              	.Letext0:
 662              		.file 2 "c:\\program files (x86)\\cypress\\psoc creator\\4.2\\psoc creator\\import\\gnu\\arm\\5.4.
 663              		.file 3 "c:\\program files (x86)\\cypress\\psoc creator\\4.2\\psoc creator\\import\\gnu\\arm\\5.4.
 664              		.file 4 "Generated_Source\\PSoC5/cytypes.h"
 665              		.file 5 "Generated_Source\\PSoC5/NP_funcs.h"
 666              		.file 6 "Generated_Source\\PSoC5/core_cm3.h"
 667              		.file 7 "..\\..\\..\\3semesterProjekt_repository\\Ultrasoundv2\\Ultrasoundv2.cydsn\\MotorApp.h"
 668              		.file 8 "..\\..\\..\\3semesterProjekt_repository\\Ultrasoundv2\\Ultrasoundv2.cydsn\\waitingState.h
 669              		.file 9 "Generated_Source\\PSoC5/motorPWM_1.h"
 670              		.file 10 "Generated_Source\\PSoC5/motorPWM_2.h"
 671              		.file 11 "Generated_Source\\PSoC5/Pin1_dir1.h"
 672              		.file 12 "Generated_Source\\PSoC5/Pin1_dir2.h"
 673              		.file 13 "Generated_Source\\PSoC5/Pin2_dir1.h"
 674              		.file 14 "Generated_Source\\PSoC5/Pin2_dir2.h"
 675              		.file 15 "c:\\program files (x86)\\cypress\\psoc creator\\4.2\\psoc creator\\import\\gnu\\arm\\5.4
 676              		.file 16 "c:\\program files (x86)\\cypress\\psoc creator\\4.2\\psoc creator\\import\\gnu\\arm\\5.4
 677              		.file 17 "Generated_Source\\PSoC5/CyLib.h"