ARM GAS  C:\Users\LUCASI~1\AppData\Local\Temp\ccfY9m68.s 			page 1


   1              		.syntax unified
   2              		.cpu cortex-m3
   3              		.fpu softvfp
   4              		.eabi_attribute 20, 1
   5              		.eabi_attribute 21, 1
   6              		.eabi_attribute 23, 3
   7              		.eabi_attribute 24, 1
   8              		.eabi_attribute 25, 1
   9              		.eabi_attribute 26, 1
  10              		.eabi_attribute 30, 1
  11              		.eabi_attribute 34, 1
  12              		.eabi_attribute 18, 4
  13              		.thumb
  14              		.syntax unified
  15              		.file	"rpiCommunication.c"
  16              		.text
  17              	.Ltext0:
  18              		.cfi_sections	.debug_frame
  19              		.section	.text.score,"ax",%progbits
  20              		.align	2
  21              		.global	score
  22              		.thumb
  23              		.thumb_func
  24              		.type	score, %function
  25              	score:
  26              	.LFB66:
  27              		.file 1 "..\\..\\..\\3semesterProjekt_repository\\Ultrasoundv2\\Ultrasoundv2.cydsn\\rpiCommunicati
   1:..\..\..\3semesterProjekt_repository\Ultrasoundv2\Ultrasoundv2.cydsn/rpiCommunication.c **** #include "rpiCommunication.h"
   2:..\..\..\3semesterProjekt_repository\Ultrasoundv2\Ultrasoundv2.cydsn/rpiCommunication.c **** #include "soundApp.h"
   3:..\..\..\3semesterProjekt_repository\Ultrasoundv2\Ultrasoundv2.cydsn/rpiCommunication.c **** #include "LedHandler.h"
   4:..\..\..\3semesterProjekt_repository\Ultrasoundv2\Ultrasoundv2.cydsn/rpiCommunication.c **** #include "project.h"
   5:..\..\..\3semesterProjekt_repository\Ultrasoundv2\Ultrasoundv2.cydsn/rpiCommunication.c **** #include "waitingState.h"
   6:..\..\..\3semesterProjekt_repository\Ultrasoundv2\Ultrasoundv2.cydsn/rpiCommunication.c **** #include "MotorApp.h"
   7:..\..\..\3semesterProjekt_repository\Ultrasoundv2\Ultrasoundv2.cydsn/rpiCommunication.c **** 
   8:..\..\..\3semesterProjekt_repository\Ultrasoundv2\Ultrasoundv2.cydsn/rpiCommunication.c **** CY_ISR_PROTO(isr_rpi_start)
   9:..\..\..\3semesterProjekt_repository\Ultrasoundv2\Ultrasoundv2.cydsn/rpiCommunication.c **** {
  10:..\..\..\3semesterProjekt_repository\Ultrasoundv2\Ultrasoundv2.cydsn/rpiCommunication.c ****    rpiStart();    
  11:..\..\..\3semesterProjekt_repository\Ultrasoundv2\Ultrasoundv2.cydsn/rpiCommunication.c **** }
  12:..\..\..\3semesterProjekt_repository\Ultrasoundv2\Ultrasoundv2.cydsn/rpiCommunication.c **** CY_ISR_PROTO(isr_rpi_stop)
  13:..\..\..\3semesterProjekt_repository\Ultrasoundv2\Ultrasoundv2.cydsn/rpiCommunication.c **** {
  14:..\..\..\3semesterProjekt_repository\Ultrasoundv2\Ultrasoundv2.cydsn/rpiCommunication.c ****     rpiStop();
  15:..\..\..\3semesterProjekt_repository\Ultrasoundv2\Ultrasoundv2.cydsn/rpiCommunication.c **** }
  16:..\..\..\3semesterProjekt_repository\Ultrasoundv2\Ultrasoundv2.cydsn/rpiCommunication.c **** 
  17:..\..\..\3semesterProjekt_repository\Ultrasoundv2\Ultrasoundv2.cydsn/rpiCommunication.c **** void score()
  18:..\..\..\3semesterProjekt_repository\Ultrasoundv2\Ultrasoundv2.cydsn/rpiCommunication.c **** {
  28              		.loc 1 18 0
  29              		.cfi_startproc
  30              		@ args = 0, pretend = 0, frame = 0
  31              		@ frame_needed = 0, uses_anonymous_args = 0
  32 0000 08B5     		push	{r3, lr}
  33              		.cfi_def_cfa_offset 8
  34              		.cfi_offset 3, -8
  35              		.cfi_offset 14, -4
  19:..\..\..\3semesterProjekt_repository\Ultrasoundv2\Ultrasoundv2.cydsn/rpiCommunication.c ****     Pin_score_Write(0);
  36              		.loc 1 19 0
  37 0002 0020     		movs	r0, #0
  38 0004 FFF7FEFF 		bl	Pin_score_Write
ARM GAS  C:\Users\LUCASI~1\AppData\Local\Temp\ccfY9m68.s 			page 2


  39              	.LVL0:
  20:..\..\..\3semesterProjekt_repository\Ultrasoundv2\Ultrasoundv2.cydsn/rpiCommunication.c ****     CyDelay(3000);
  40              		.loc 1 20 0
  41 0008 40F6B830 		movw	r0, #3000
  42 000c FFF7FEFF 		bl	CyDelay
  43              	.LVL1:
  21:..\..\..\3semesterProjekt_repository\Ultrasoundv2\Ultrasoundv2.cydsn/rpiCommunication.c ****     Pin_score_Write(1);
  44              		.loc 1 21 0
  45 0010 0120     		movs	r0, #1
  46 0012 FFF7FEFF 		bl	Pin_score_Write
  47              	.LVL2:
  48 0016 08BD     		pop	{r3, pc}
  49              		.cfi_endproc
  50              	.LFE66:
  51              		.size	score, .-score
  52              		.section	.text.rpiStart,"ax",%progbits
  53              		.align	2
  54              		.global	rpiStart
  55              		.thumb
  56              		.thumb_func
  57              		.type	rpiStart, %function
  58              	rpiStart:
  59              	.LFB67:
  22:..\..\..\3semesterProjekt_repository\Ultrasoundv2\Ultrasoundv2.cydsn/rpiCommunication.c **** }
  23:..\..\..\3semesterProjekt_repository\Ultrasoundv2\Ultrasoundv2.cydsn/rpiCommunication.c **** 
  24:..\..\..\3semesterProjekt_repository\Ultrasoundv2\Ultrasoundv2.cydsn/rpiCommunication.c **** void rpiStart()
  25:..\..\..\3semesterProjekt_repository\Ultrasoundv2\Ultrasoundv2.cydsn/rpiCommunication.c **** {
  60              		.loc 1 25 0
  61              		.cfi_startproc
  62              		@ args = 0, pretend = 0, frame = 0
  63              		@ frame_needed = 0, uses_anonymous_args = 0
  64              		@ link register save eliminated.
  26:..\..\..\3semesterProjekt_repository\Ultrasoundv2\Ultrasoundv2.cydsn/rpiCommunication.c ****     rpiRunning = 1;
  65              		.loc 1 26 0
  66 0000 0122     		movs	r2, #1
  67 0002 014B     		ldr	r3, .L4
  68 0004 1A60     		str	r2, [r3]
  69 0006 7047     		bx	lr
  70              	.L5:
  71              		.align	2
  72              	.L4:
  73 0008 00000000 		.word	rpiRunning
  74              		.cfi_endproc
  75              	.LFE67:
  76              		.size	rpiStart, .-rpiStart
  77              		.section	.text.isr_rpi_start,"ax",%progbits
  78              		.align	2
  79              		.global	isr_rpi_start
  80              		.thumb
  81              		.thumb_func
  82              		.type	isr_rpi_start, %function
  83              	isr_rpi_start:
  84              	.LFB64:
   9:..\..\..\3semesterProjekt_repository\Ultrasoundv2\Ultrasoundv2.cydsn/rpiCommunication.c ****    rpiStart();    
  85              		.loc 1 9 0
  86              		.cfi_startproc
  87              		@ args = 0, pretend = 0, frame = 0
ARM GAS  C:\Users\LUCASI~1\AppData\Local\Temp\ccfY9m68.s 			page 3


  88              		@ frame_needed = 0, uses_anonymous_args = 0
  89 0000 08B5     		push	{r3, lr}
  90              		.cfi_def_cfa_offset 8
  91              		.cfi_offset 3, -8
  92              		.cfi_offset 14, -4
  10:..\..\..\3semesterProjekt_repository\Ultrasoundv2\Ultrasoundv2.cydsn/rpiCommunication.c **** }
  93              		.loc 1 10 0
  94 0002 FFF7FEFF 		bl	rpiStart
  95              	.LVL3:
  96 0006 08BD     		pop	{r3, pc}
  97              		.cfi_endproc
  98              	.LFE64:
  99              		.size	isr_rpi_start, .-isr_rpi_start
 100              		.section	.text.rpiStop,"ax",%progbits
 101              		.align	2
 102              		.global	rpiStop
 103              		.thumb
 104              		.thumb_func
 105              		.type	rpiStop, %function
 106              	rpiStop:
 107              	.LFB68:
  27:..\..\..\3semesterProjekt_repository\Ultrasoundv2\Ultrasoundv2.cydsn/rpiCommunication.c **** }
  28:..\..\..\3semesterProjekt_repository\Ultrasoundv2\Ultrasoundv2.cydsn/rpiCommunication.c **** 
  29:..\..\..\3semesterProjekt_repository\Ultrasoundv2\Ultrasoundv2.cydsn/rpiCommunication.c **** void rpiStop()
  30:..\..\..\3semesterProjekt_repository\Ultrasoundv2\Ultrasoundv2.cydsn/rpiCommunication.c **** {
 108              		.loc 1 30 0
 109              		.cfi_startproc
 110              		@ args = 0, pretend = 0, frame = 0
 111              		@ frame_needed = 0, uses_anonymous_args = 0
 112 0000 08B5     		push	{r3, lr}
 113              		.cfi_def_cfa_offset 8
 114              		.cfi_offset 3, -8
 115              		.cfi_offset 14, -4
  31:..\..\..\3semesterProjekt_repository\Ultrasoundv2\Ultrasoundv2.cydsn/rpiCommunication.c ****     motorStop();
 116              		.loc 1 31 0
 117 0002 FFF7FEFF 		bl	motorStop
 118              	.LVL4:
  32:..\..\..\3semesterProjekt_repository\Ultrasoundv2\Ultrasoundv2.cydsn/rpiCommunication.c ****     sendToSOMO(2);
 119              		.loc 1 32 0
 120 0006 0220     		movs	r0, #2
 121 0008 FFF7FEFF 		bl	sendToSOMO
 122              	.LVL5:
  33:..\..\..\3semesterProjekt_repository\Ultrasoundv2\Ultrasoundv2.cydsn/rpiCommunication.c ****     ledHandler(STOP);
 123              		.loc 1 33 0
 124 000c 0120     		movs	r0, #1
 125 000e FFF7FEFF 		bl	ledHandler
 126              	.LVL6:
  34:..\..\..\3semesterProjekt_repository\Ultrasoundv2\Ultrasoundv2.cydsn/rpiCommunication.c ****     CyDelay(2000);
 127              		.loc 1 34 0
 128 0012 4FF4FA60 		mov	r0, #2000
 129 0016 FFF7FEFF 		bl	CyDelay
 130              	.LVL7:
  35:..\..\..\3semesterProjekt_repository\Ultrasoundv2\Ultrasoundv2.cydsn/rpiCommunication.c ****     rpiRunning = 0;
 131              		.loc 1 35 0
 132 001a 0023     		movs	r3, #0
 133 001c 024A     		ldr	r2, .L10
 134 001e 1360     		str	r3, [r2]
ARM GAS  C:\Users\LUCASI~1\AppData\Local\Temp\ccfY9m68.s 			page 4


  36:..\..\..\3semesterProjekt_repository\Ultrasoundv2\Ultrasoundv2.cydsn/rpiCommunication.c ****     running_ = 0;
 135              		.loc 1 36 0
 136 0020 024A     		ldr	r2, .L10+4
 137 0022 1360     		str	r3, [r2]
 138 0024 08BD     		pop	{r3, pc}
 139              	.L11:
 140 0026 00BF     		.align	2
 141              	.L10:
 142 0028 00000000 		.word	rpiRunning
 143 002c 00000000 		.word	running_
 144              		.cfi_endproc
 145              	.LFE68:
 146              		.size	rpiStop, .-rpiStop
 147              		.section	.text.isr_rpi_stop,"ax",%progbits
 148              		.align	2
 149              		.global	isr_rpi_stop
 150              		.thumb
 151              		.thumb_func
 152              		.type	isr_rpi_stop, %function
 153              	isr_rpi_stop:
 154              	.LFB65:
  13:..\..\..\3semesterProjekt_repository\Ultrasoundv2\Ultrasoundv2.cydsn/rpiCommunication.c ****     rpiStop();
 155              		.loc 1 13 0
 156              		.cfi_startproc
 157              		@ args = 0, pretend = 0, frame = 0
 158              		@ frame_needed = 0, uses_anonymous_args = 0
 159 0000 08B5     		push	{r3, lr}
 160              		.cfi_def_cfa_offset 8
 161              		.cfi_offset 3, -8
 162              		.cfi_offset 14, -4
  14:..\..\..\3semesterProjekt_repository\Ultrasoundv2\Ultrasoundv2.cydsn/rpiCommunication.c **** }
 163              		.loc 1 14 0
 164 0002 FFF7FEFF 		bl	rpiStop
 165              	.LVL8:
 166 0006 08BD     		pop	{r3, pc}
 167              		.cfi_endproc
 168              	.LFE65:
 169              		.size	isr_rpi_stop, .-isr_rpi_stop
 170              		.section	.text.rpiInit,"ax",%progbits
 171              		.align	2
 172              		.global	rpiInit
 173              		.thumb
 174              		.thumb_func
 175              		.type	rpiInit, %function
 176              	rpiInit:
 177              	.LFB69:
  37:..\..\..\3semesterProjekt_repository\Ultrasoundv2\Ultrasoundv2.cydsn/rpiCommunication.c **** }
  38:..\..\..\3semesterProjekt_repository\Ultrasoundv2\Ultrasoundv2.cydsn/rpiCommunication.c **** 
  39:..\..\..\3semesterProjekt_repository\Ultrasoundv2\Ultrasoundv2.cydsn/rpiCommunication.c **** void rpiInit()
  40:..\..\..\3semesterProjekt_repository\Ultrasoundv2\Ultrasoundv2.cydsn/rpiCommunication.c **** {
 178              		.loc 1 40 0
 179              		.cfi_startproc
 180              		@ args = 0, pretend = 0, frame = 0
 181              		@ frame_needed = 0, uses_anonymous_args = 0
 182 0000 08B5     		push	{r3, lr}
 183              		.cfi_def_cfa_offset 8
 184              		.cfi_offset 3, -8
ARM GAS  C:\Users\LUCASI~1\AppData\Local\Temp\ccfY9m68.s 			page 5


 185              		.cfi_offset 14, -4
  41:..\..\..\3semesterProjekt_repository\Ultrasoundv2\Ultrasoundv2.cydsn/rpiCommunication.c ****     Pin_score_Write(1);
 186              		.loc 1 41 0
 187 0002 0120     		movs	r0, #1
 188 0004 FFF7FEFF 		bl	Pin_score_Write
 189              	.LVL9:
 190 0008 08BD     		pop	{r3, pc}
 191              		.cfi_endproc
 192              	.LFE69:
 193              		.size	rpiInit, .-rpiInit
 194              		.comm	randturn,4,4
 195              		.comm	randState,4,4
 196              		.comm	state,4,4
 197              		.comm	difficulty,4,4
 198              		.comm	buffer,250,4
 199              		.comm	running_,4,4
 200              		.comm	pPixelArray,51,4
 201              		.comm	rpiRunning,4,4
 202              		.comm	NP_g_nFrameBufferSize,4,4
 203              		.comm	NP_g_pFrameBuffer,4,4
 204              		.comm	NP_g_bOwnsBuffer,1,1
 205              		.comm	NP_g_nDMA_TD,1,1
 206              		.comm	NP_g_nDMA_Chan,1,1
 207              		.comm	NP_g_nNumberOfPixels,4,4
 208 000a 00BF     		.text
 209              	.Letext0:
 210              		.file 2 "c:\\program files (x86)\\cypress\\psoc creator\\4.2\\psoc creator\\import\\gnu\\arm\\5.4.
 211              		.file 3 "c:\\program files (x86)\\cypress\\psoc creator\\4.2\\psoc creator\\import\\gnu\\arm\\5.4.
 212              		.file 4 "Generated_Source\\PSoC5/cytypes.h"
 213              		.file 5 "Generated_Source\\PSoC5/NP_funcs.h"
 214              		.file 6 "Generated_Source\\PSoC5/core_cm3.h"
 215              		.file 7 "..\\..\\..\\3semesterProjekt_repository\\Ultrasoundv2\\Ultrasoundv2.cydsn\\rpiCommunicati
 216              		.file 8 "./LedHandler.h"
 217              		.file 9 "..\\..\\..\\3semesterProjekt_repository\\Ultrasoundv2\\Ultrasoundv2.cydsn\\waitingState.h
 218              		.file 10 "..\\..\\..\\3semesterProjekt_repository\\Ultrasoundv2\\Ultrasoundv2.cydsn\\MotorApp.h"
 219              		.file 11 "Generated_Source\\PSoC5/Pin_score.h"
 220              		.file 12 "Generated_Source\\PSoC5/CyLib.h"
 221              		.file 13 "..\\..\\..\\3semesterProjekt_repository\\Ultrasoundv2\\Ultrasoundv2.cydsn\\soundApp.h"