ARM GAS  C:\Users\LUCASI~1\AppData\Local\Temp\ccb4qsrk.s 			page 1


   1              		.syntax unified
   2              		.cpu cortex-m3
   3              		.fpu softvfp
   4              		.eabi_attribute 20, 1
   5              		.eabi_attribute 21, 1
   6              		.eabi_attribute 23, 3
   7              		.eabi_attribute 24, 1
   8              		.eabi_attribute 25, 1
   9              		.eabi_attribute 26, 1
  10              		.eabi_attribute 30, 1
  11              		.eabi_attribute 34, 1
  12              		.eabi_attribute 18, 4
  13              		.thumb
  14              		.syntax unified
  15              		.file	"scale.c"
  16              		.text
  17              	.Ltext0:
  18              		.cfi_sections	.debug_frame
  19              		.section	.text.clearScaleVariables,"ax",%progbits
  20              		.align	2
  21              		.global	clearScaleVariables
  22              		.thumb
  23              		.thumb_func
  24              		.type	clearScaleVariables, %function
  25              	clearScaleVariables:
  26              	.LFB64:
  27              		.file 1 "..\\..\\..\\3semesterProjekt_repository\\Ultrasoundv2\\Ultrasoundv2.cydsn\\scale.c"
   1:..\..\..\3semesterProjekt_repository\Ultrasoundv2\Ultrasoundv2.cydsn/scale.c **** #include "scale.h"
   2:..\..\..\3semesterProjekt_repository\Ultrasoundv2\Ultrasoundv2.cydsn/scale.c **** 
   3:..\..\..\3semesterProjekt_repository\Ultrasoundv2\Ultrasoundv2.cydsn/scale.c **** int readScaleStatus(void){
   4:..\..\..\3semesterProjekt_repository\Ultrasoundv2\Ultrasoundv2.cydsn/scale.c ****     
   5:..\..\..\3semesterProjekt_repository\Ultrasoundv2\Ultrasoundv2.cydsn/scale.c ****     ADC_SAR_1_StartConvert();
   6:..\..\..\3semesterProjekt_repository\Ultrasoundv2\Ultrasoundv2.cydsn/scale.c ****     
   7:..\..\..\3semesterProjekt_repository\Ultrasoundv2\Ultrasoundv2.cydsn/scale.c ****     clearScaleVariables();
   8:..\..\..\3semesterProjekt_repository\Ultrasoundv2\Ultrasoundv2.cydsn/scale.c ****     
   9:..\..\..\3semesterProjekt_repository\Ultrasoundv2\Ultrasoundv2.cydsn/scale.c ****     for(int i = 0; i < 20; i++)
  10:..\..\..\3semesterProjekt_repository\Ultrasoundv2\Ultrasoundv2.cydsn/scale.c ****     {
  11:..\..\..\3semesterProjekt_repository\Ultrasoundv2\Ultrasoundv2.cydsn/scale.c ****         if (ADC_SAR_1_IsEndConversion(ADC_SAR_1_WAIT_FOR_RESULT))   //Venter på et resultat.
  12:..\..\..\3semesterProjekt_repository\Ultrasoundv2\Ultrasoundv2.cydsn/scale.c ****         {
  13:..\..\..\3semesterProjekt_repository\Ultrasoundv2\Ultrasoundv2.cydsn/scale.c ****             result = ADC_SAR_1_GetResult16();  
  14:..\..\..\3semesterProjekt_repository\Ultrasoundv2\Ultrasoundv2.cydsn/scale.c ****             
  15:..\..\..\3semesterProjekt_repository\Ultrasoundv2\Ultrasoundv2.cydsn/scale.c ****             CyDelay(10);
  16:..\..\..\3semesterProjekt_repository\Ultrasoundv2\Ultrasoundv2.cydsn/scale.c ****             
  17:..\..\..\3semesterProjekt_repository\Ultrasoundv2\Ultrasoundv2.cydsn/scale.c ****             measurement++;
  18:..\..\..\3semesterProjekt_repository\Ultrasoundv2\Ultrasoundv2.cydsn/scale.c ****             
  19:..\..\..\3semesterProjekt_repository\Ultrasoundv2\Ultrasoundv2.cydsn/scale.c ****             if(result < 3500)
  20:..\..\..\3semesterProjekt_repository\Ultrasoundv2\Ultrasoundv2.cydsn/scale.c ****             {
  21:..\..\..\3semesterProjekt_repository\Ultrasoundv2\Ultrasoundv2.cydsn/scale.c ****                 count_ok++;
  22:..\..\..\3semesterProjekt_repository\Ultrasoundv2\Ultrasoundv2.cydsn/scale.c ****                 if (count_ok == 8)
  23:..\..\..\3semesterProjekt_repository\Ultrasoundv2\Ultrasoundv2.cydsn/scale.c ****                 {
  24:..\..\..\3semesterProjekt_repository\Ultrasoundv2\Ultrasoundv2.cydsn/scale.c ****                     ADC_SAR_1_StopConvert();
  25:..\..\..\3semesterProjekt_repository\Ultrasoundv2\Ultrasoundv2.cydsn/scale.c ****                     status_scale = 1;
  26:..\..\..\3semesterProjekt_repository\Ultrasoundv2\Ultrasoundv2.cydsn/scale.c ****                     return status_scale;
  27:..\..\..\3semesterProjekt_repository\Ultrasoundv2\Ultrasoundv2.cydsn/scale.c ****                 }
  28:..\..\..\3semesterProjekt_repository\Ultrasoundv2\Ultrasoundv2.cydsn/scale.c ****             }
  29:..\..\..\3semesterProjekt_repository\Ultrasoundv2\Ultrasoundv2.cydsn/scale.c ****             else if(result > 3500)
  30:..\..\..\3semesterProjekt_repository\Ultrasoundv2\Ultrasoundv2.cydsn/scale.c ****             {
ARM GAS  C:\Users\LUCASI~1\AppData\Local\Temp\ccb4qsrk.s 			page 2


  31:..\..\..\3semesterProjekt_repository\Ultrasoundv2\Ultrasoundv2.cydsn/scale.c ****                 count_not_ok++;
  32:..\..\..\3semesterProjekt_repository\Ultrasoundv2\Ultrasoundv2.cydsn/scale.c ****                 if (count_not_ok == 8)
  33:..\..\..\3semesterProjekt_repository\Ultrasoundv2\Ultrasoundv2.cydsn/scale.c ****                 {
  34:..\..\..\3semesterProjekt_repository\Ultrasoundv2\Ultrasoundv2.cydsn/scale.c ****                     ADC_SAR_1_StopConvert();
  35:..\..\..\3semesterProjekt_repository\Ultrasoundv2\Ultrasoundv2.cydsn/scale.c ****                     status_scale = 0;
  36:..\..\..\3semesterProjekt_repository\Ultrasoundv2\Ultrasoundv2.cydsn/scale.c ****                     return status_scale;
  37:..\..\..\3semesterProjekt_repository\Ultrasoundv2\Ultrasoundv2.cydsn/scale.c ****                 }
  38:..\..\..\3semesterProjekt_repository\Ultrasoundv2\Ultrasoundv2.cydsn/scale.c ****             }
  39:..\..\..\3semesterProjekt_repository\Ultrasoundv2\Ultrasoundv2.cydsn/scale.c ****         }
  40:..\..\..\3semesterProjekt_repository\Ultrasoundv2\Ultrasoundv2.cydsn/scale.c ****     }
  41:..\..\..\3semesterProjekt_repository\Ultrasoundv2\Ultrasoundv2.cydsn/scale.c ****     
  42:..\..\..\3semesterProjekt_repository\Ultrasoundv2\Ultrasoundv2.cydsn/scale.c ****     return 0;
  43:..\..\..\3semesterProjekt_repository\Ultrasoundv2\Ultrasoundv2.cydsn/scale.c **** }
  44:..\..\..\3semesterProjekt_repository\Ultrasoundv2\Ultrasoundv2.cydsn/scale.c **** 
  45:..\..\..\3semesterProjekt_repository\Ultrasoundv2\Ultrasoundv2.cydsn/scale.c **** void clearScaleVariables(){
  28              		.loc 1 45 0
  29              		.cfi_startproc
  30              		@ args = 0, pretend = 0, frame = 0
  31              		@ frame_needed = 0, uses_anonymous_args = 0
  32              		@ link register save eliminated.
  46:..\..\..\3semesterProjekt_repository\Ultrasoundv2\Ultrasoundv2.cydsn/scale.c ****     status_scale = 0;
  33              		.loc 1 46 0
  34 0000 0023     		movs	r3, #0
  35 0002 054A     		ldr	r2, .L2
  36 0004 1380     		strh	r3, [r2]	@ movhi
  47:..\..\..\3semesterProjekt_repository\Ultrasoundv2\Ultrasoundv2.cydsn/scale.c ****     result = 0;
  37              		.loc 1 47 0
  38 0006 054A     		ldr	r2, .L2+4
  39 0008 1380     		strh	r3, [r2]	@ movhi
  48:..\..\..\3semesterProjekt_repository\Ultrasoundv2\Ultrasoundv2.cydsn/scale.c ****     count_not_ok = 0;
  40              		.loc 1 48 0
  41 000a 054A     		ldr	r2, .L2+8
  42 000c 1380     		strh	r3, [r2]	@ movhi
  49:..\..\..\3semesterProjekt_repository\Ultrasoundv2\Ultrasoundv2.cydsn/scale.c ****     count_ok = 0;
  43              		.loc 1 49 0
  44 000e 054A     		ldr	r2, .L2+12
  45 0010 1380     		strh	r3, [r2]	@ movhi
  50:..\..\..\3semesterProjekt_repository\Ultrasoundv2\Ultrasoundv2.cydsn/scale.c ****     measurement = 0;
  46              		.loc 1 50 0
  47 0012 054A     		ldr	r2, .L2+16
  48 0014 1380     		strh	r3, [r2]	@ movhi
  49 0016 7047     		bx	lr
  50              	.L3:
  51              		.align	2
  52              	.L2:
  53 0018 00000000 		.word	status_scale
  54 001c 00000000 		.word	result
  55 0020 00000000 		.word	count_not_ok
  56 0024 00000000 		.word	count_ok
  57 0028 00000000 		.word	measurement
  58              		.cfi_endproc
  59              	.LFE64:
  60              		.size	clearScaleVariables, .-clearScaleVariables
  61              		.section	.text.readScaleStatus,"ax",%progbits
  62              		.align	2
  63              		.global	readScaleStatus
  64              		.thumb
ARM GAS  C:\Users\LUCASI~1\AppData\Local\Temp\ccb4qsrk.s 			page 3


  65              		.thumb_func
  66              		.type	readScaleStatus, %function
  67              	readScaleStatus:
  68              	.LFB63:
   3:..\..\..\3semesterProjekt_repository\Ultrasoundv2\Ultrasoundv2.cydsn/scale.c ****     
  69              		.loc 1 3 0
  70              		.cfi_startproc
  71              		@ args = 0, pretend = 0, frame = 0
  72              		@ frame_needed = 0, uses_anonymous_args = 0
  73 0000 38B5     		push	{r3, r4, r5, lr}
  74              		.cfi_def_cfa_offset 16
  75              		.cfi_offset 3, -16
  76              		.cfi_offset 4, -12
  77              		.cfi_offset 5, -8
  78              		.cfi_offset 14, -4
   5:..\..\..\3semesterProjekt_repository\Ultrasoundv2\Ultrasoundv2.cydsn/scale.c ****     
  79              		.loc 1 5 0
  80 0002 FFF7FEFF 		bl	ADC_SAR_1_StartConvert
  81              	.LVL0:
   7:..\..\..\3semesterProjekt_repository\Ultrasoundv2\Ultrasoundv2.cydsn/scale.c ****     
  82              		.loc 1 7 0
  83 0006 FFF7FEFF 		bl	clearScaleVariables
  84              	.LVL1:
  85              	.LBB2:
   9:..\..\..\3semesterProjekt_repository\Ultrasoundv2\Ultrasoundv2.cydsn/scale.c ****     {
  86              		.loc 1 9 0
  87 000a 0024     		movs	r4, #0
  88 000c 33E0     		b	.L5
  89              	.LVL2:
  90              	.L9:
  11:..\..\..\3semesterProjekt_repository\Ultrasoundv2\Ultrasoundv2.cydsn/scale.c ****         {
  91              		.loc 1 11 0
  92 000e 0020     		movs	r0, #0
  93 0010 FFF7FEFF 		bl	ADC_SAR_1_IsEndConversion
  94              	.LVL3:
  95 0014 0028     		cmp	r0, #0
  96 0016 2DD0     		beq	.L6
  13:..\..\..\3semesterProjekt_repository\Ultrasoundv2\Ultrasoundv2.cydsn/scale.c ****             
  97              		.loc 1 13 0
  98 0018 FFF7FEFF 		bl	ADC_SAR_1_GetResult16
  99              	.LVL4:
 100 001c 184D     		ldr	r5, .L11
 101 001e 2880     		strh	r0, [r5]	@ movhi
  15:..\..\..\3semesterProjekt_repository\Ultrasoundv2\Ultrasoundv2.cydsn/scale.c ****             
 102              		.loc 1 15 0
 103 0020 0A20     		movs	r0, #10
 104 0022 FFF7FEFF 		bl	CyDelay
 105              	.LVL5:
  17:..\..\..\3semesterProjekt_repository\Ultrasoundv2\Ultrasoundv2.cydsn/scale.c ****             
 106              		.loc 1 17 0
 107 0026 174A     		ldr	r2, .L11+4
 108 0028 1388     		ldrh	r3, [r2]
 109 002a 0133     		adds	r3, r3, #1
 110 002c 1380     		strh	r3, [r2]	@ movhi
  19:..\..\..\3semesterProjekt_repository\Ultrasoundv2\Ultrasoundv2.cydsn/scale.c ****             {
 111              		.loc 1 19 0
 112 002e 2B88     		ldrh	r3, [r5]
ARM GAS  C:\Users\LUCASI~1\AppData\Local\Temp\ccb4qsrk.s 			page 4


 113 0030 40F6AB52 		movw	r2, #3499
 114 0034 9342     		cmp	r3, r2
 115 0036 0CD8     		bhi	.L7
  21:..\..\..\3semesterProjekt_repository\Ultrasoundv2\Ultrasoundv2.cydsn/scale.c ****                 if (count_ok == 8)
 116              		.loc 1 21 0
 117 0038 134A     		ldr	r2, .L11+8
 118 003a 1388     		ldrh	r3, [r2]
 119 003c 0133     		adds	r3, r3, #1
 120 003e 9BB2     		uxth	r3, r3
 121 0040 1380     		strh	r3, [r2]	@ movhi
  22:..\..\..\3semesterProjekt_repository\Ultrasoundv2\Ultrasoundv2.cydsn/scale.c ****                 {
 122              		.loc 1 22 0
 123 0042 082B     		cmp	r3, #8
 124 0044 16D1     		bne	.L6
  24:..\..\..\3semesterProjekt_repository\Ultrasoundv2\Ultrasoundv2.cydsn/scale.c ****                     status_scale = 1;
 125              		.loc 1 24 0
 126 0046 FFF7FEFF 		bl	ADC_SAR_1_StopConvert
 127              	.LVL6:
  25:..\..\..\3semesterProjekt_repository\Ultrasoundv2\Ultrasoundv2.cydsn/scale.c ****                     return status_scale;
 128              		.loc 1 25 0
 129 004a 0120     		movs	r0, #1
 130 004c 0F4B     		ldr	r3, .L11+12
 131 004e 1880     		strh	r0, [r3]	@ movhi
  26:..\..\..\3semesterProjekt_repository\Ultrasoundv2\Ultrasoundv2.cydsn/scale.c ****                 }
 132              		.loc 1 26 0
 133 0050 38BD     		pop	{r3, r4, r5, pc}
 134              	.LVL7:
 135              	.L7:
  29:..\..\..\3semesterProjekt_repository\Ultrasoundv2\Ultrasoundv2.cydsn/scale.c ****             {
 136              		.loc 1 29 0
 137 0052 40F6AC52 		movw	r2, #3500
 138 0056 9342     		cmp	r3, r2
 139 0058 0CD9     		bls	.L6
  31:..\..\..\3semesterProjekt_repository\Ultrasoundv2\Ultrasoundv2.cydsn/scale.c ****                 if (count_not_ok == 8)
 140              		.loc 1 31 0
 141 005a 0D4A     		ldr	r2, .L11+16
 142 005c 1388     		ldrh	r3, [r2]
 143 005e 0133     		adds	r3, r3, #1
 144 0060 9BB2     		uxth	r3, r3
 145 0062 1380     		strh	r3, [r2]	@ movhi
  32:..\..\..\3semesterProjekt_repository\Ultrasoundv2\Ultrasoundv2.cydsn/scale.c ****                 {
 146              		.loc 1 32 0
 147 0064 082B     		cmp	r3, #8
 148 0066 05D1     		bne	.L6
  34:..\..\..\3semesterProjekt_repository\Ultrasoundv2\Ultrasoundv2.cydsn/scale.c ****                     status_scale = 0;
 149              		.loc 1 34 0
 150 0068 FFF7FEFF 		bl	ADC_SAR_1_StopConvert
 151              	.LVL8:
  35:..\..\..\3semesterProjekt_repository\Ultrasoundv2\Ultrasoundv2.cydsn/scale.c ****                     return status_scale;
 152              		.loc 1 35 0
 153 006c 0020     		movs	r0, #0
 154 006e 074B     		ldr	r3, .L11+12
 155 0070 1880     		strh	r0, [r3]	@ movhi
  36:..\..\..\3semesterProjekt_repository\Ultrasoundv2\Ultrasoundv2.cydsn/scale.c ****                 }
 156              		.loc 1 36 0
 157 0072 38BD     		pop	{r3, r4, r5, pc}
 158              	.LVL9:
ARM GAS  C:\Users\LUCASI~1\AppData\Local\Temp\ccb4qsrk.s 			page 5


 159              	.L6:
   9:..\..\..\3semesterProjekt_repository\Ultrasoundv2\Ultrasoundv2.cydsn/scale.c ****     {
 160              		.loc 1 9 0 discriminator 2
 161 0074 0134     		adds	r4, r4, #1
 162              	.LVL10:
 163              	.L5:
   9:..\..\..\3semesterProjekt_repository\Ultrasoundv2\Ultrasoundv2.cydsn/scale.c ****     {
 164              		.loc 1 9 0 is_stmt 0 discriminator 1
 165 0076 132C     		cmp	r4, #19
 166 0078 C9DD     		ble	.L9
 167              	.LBE2:
  42:..\..\..\3semesterProjekt_repository\Ultrasoundv2\Ultrasoundv2.cydsn/scale.c **** }
 168              		.loc 1 42 0 is_stmt 1
 169 007a 0020     		movs	r0, #0
  43:..\..\..\3semesterProjekt_repository\Ultrasoundv2\Ultrasoundv2.cydsn/scale.c **** 
 170              		.loc 1 43 0
 171 007c 38BD     		pop	{r3, r4, r5, pc}
 172              	.LVL11:
 173              	.L12:
 174 007e 00BF     		.align	2
 175              	.L11:
 176 0080 00000000 		.word	result
 177 0084 00000000 		.word	measurement
 178 0088 00000000 		.word	count_ok
 179 008c 00000000 		.word	status_scale
 180 0090 00000000 		.word	count_not_ok
 181              		.cfi_endproc
 182              	.LFE63:
 183              		.size	readScaleStatus, .-readScaleStatus
 184              		.comm	status_scale,2,2
 185              		.comm	count_not_ok,2,2
 186              		.comm	count_ok,2,2
 187              		.comm	measurement,2,2
 188              		.comm	uartBuffer,256,4
 189              		.comm	result,2,2
 190              		.comm	NP_g_nFrameBufferSize,4,4
 191              		.comm	NP_g_pFrameBuffer,4,4
 192              		.comm	NP_g_bOwnsBuffer,1,1
 193              		.comm	NP_g_nDMA_TD,1,1
 194              		.comm	NP_g_nDMA_Chan,1,1
 195              		.comm	NP_g_nNumberOfPixels,4,4
 196              		.text
 197              	.Letext0:
 198              		.file 2 "c:\\program files (x86)\\cypress\\psoc creator\\4.2\\psoc creator\\import\\gnu\\arm\\5.4.
 199              		.file 3 "c:\\program files (x86)\\cypress\\psoc creator\\4.2\\psoc creator\\import\\gnu\\arm\\5.4.
 200              		.file 4 "Generated_Source\\PSoC5/cytypes.h"
 201              		.file 5 "Generated_Source\\PSoC5/NP_funcs.h"
 202              		.file 6 "Generated_Source\\PSoC5/core_cm3.h"
 203              		.file 7 "..\\..\\..\\3semesterProjekt_repository\\Ultrasoundv2\\Ultrasoundv2.cydsn\\scale.h"
 204              		.file 8 "Generated_Source\\PSoC5/ADC_SAR_1.h"
 205              		.file 9 "Generated_Source\\PSoC5/CyLib.h"