ARM GAS  C:\Users\LUCASI~1\AppData\Local\Temp\ccMkS20y.s 			page 1


   1              		.syntax unified
   2              		.cpu cortex-m3
   3              		.fpu softvfp
   4              		.eabi_attribute 20, 1
   5              		.eabi_attribute 21, 1
   6              		.eabi_attribute 23, 3
   7              		.eabi_attribute 24, 1
   8              		.eabi_attribute 25, 1
   9              		.eabi_attribute 26, 1
  10              		.eabi_attribute 30, 1
  11              		.eabi_attribute 34, 1
  12              		.eabi_attribute 18, 4
  13              		.thumb
  14              		.syntax unified
  15              		.file	"waitingState.c"
  16              		.text
  17              	.Ltext0:
  18              		.cfi_sections	.debug_frame
  19              		.section	.text.waitingStateStart,"ax",%progbits
  20              		.align	2
  21              		.global	waitingStateStart
  22              		.thumb
  23              		.thumb_func
  24              		.type	waitingStateStart, %function
  25              	waitingStateStart:
  26              	.LFB63:
  27              		.file 1 "..\\..\\..\\3semesterProjekt_repository\\Ultrasoundv2\\Ultrasoundv2.cydsn\\waitingState.c
   1:..\..\..\3semesterProjekt_repository\Ultrasoundv2\Ultrasoundv2.cydsn/waitingState.c **** #include "waitingState.h"
   2:..\..\..\3semesterProjekt_repository\Ultrasoundv2\Ultrasoundv2.cydsn/waitingState.c **** #include "rpiCommunication.h"
   3:..\..\..\3semesterProjekt_repository\Ultrasoundv2\Ultrasoundv2.cydsn/waitingState.c **** #include "scale.h"
   4:..\..\..\3semesterProjekt_repository\Ultrasoundv2\Ultrasoundv2.cydsn/waitingState.c **** #include "soundApp.h"
   5:..\..\..\3semesterProjekt_repository\Ultrasoundv2\Ultrasoundv2.cydsn/waitingState.c **** #include "LedHandler.h"
   6:..\..\..\3semesterProjekt_repository\Ultrasoundv2\Ultrasoundv2.cydsn/waitingState.c **** 
   7:..\..\..\3semesterProjekt_repository\Ultrasoundv2\Ultrasoundv2.cydsn/waitingState.c **** void waitingStateStart()
   8:..\..\..\3semesterProjekt_repository\Ultrasoundv2\Ultrasoundv2.cydsn/waitingState.c **** {
  28              		.loc 1 8 0
  29              		.cfi_startproc
  30              		@ args = 0, pretend = 0, frame = 0
  31              		@ frame_needed = 0, uses_anonymous_args = 0
  32 0000 08B5     		push	{r3, lr}
  33              		.cfi_def_cfa_offset 8
  34              		.cfi_offset 3, -8
  35              		.cfi_offset 14, -4
   9:..\..\..\3semesterProjekt_repository\Ultrasoundv2\Ultrasoundv2.cydsn/waitingState.c ****     if(rpiRunning == 1)
  36              		.loc 1 9 0
  37 0002 0A4B     		ldr	r3, .L4
  38 0004 1B68     		ldr	r3, [r3]
  39 0006 012B     		cmp	r3, #1
  40 0008 0FD1     		bne	.L1
  10:..\..\..\3semesterProjekt_repository\Ultrasoundv2\Ultrasoundv2.cydsn/waitingState.c ****     {
  11:..\..\..\3semesterProjekt_repository\Ultrasoundv2\Ultrasoundv2.cydsn/waitingState.c ****         
  12:..\..\..\3semesterProjekt_repository\Ultrasoundv2\Ultrasoundv2.cydsn/waitingState.c ****         if(readScaleStatus() != 0)
  41              		.loc 1 12 0
  42 000a FFF7FEFF 		bl	readScaleStatus
  43              	.LVL0:
  44 000e 60B1     		cbz	r0, .L1
  13:..\..\..\3semesterProjekt_repository\Ultrasoundv2\Ultrasoundv2.cydsn/waitingState.c ****         {
ARM GAS  C:\Users\LUCASI~1\AppData\Local\Temp\ccMkS20y.s 			page 2


  14:..\..\..\3semesterProjekt_repository\Ultrasoundv2\Ultrasoundv2.cydsn/waitingState.c ****             sendToSOMO(1);
  45              		.loc 1 14 0
  46 0010 0120     		movs	r0, #1
  47 0012 FFF7FEFF 		bl	sendToSOMO
  48              	.LVL1:
  15:..\..\..\3semesterProjekt_repository\Ultrasoundv2\Ultrasoundv2.cydsn/waitingState.c ****             ledHandler(START);
  49              		.loc 1 15 0
  50 0016 0020     		movs	r0, #0
  51 0018 FFF7FEFF 		bl	ledHandler
  52              	.LVL2:
  16:..\..\..\3semesterProjekt_repository\Ultrasoundv2\Ultrasoundv2.cydsn/waitingState.c ****             CyDelay(5000);
  53              		.loc 1 16 0
  54 001c 41F28830 		movw	r0, #5000
  55 0020 FFF7FEFF 		bl	CyDelay
  56              	.LVL3:
  17:..\..\..\3semesterProjekt_repository\Ultrasoundv2\Ultrasoundv2.cydsn/waitingState.c ****             running_ = 1;
  57              		.loc 1 17 0
  58 0024 0122     		movs	r2, #1
  59 0026 024B     		ldr	r3, .L4+4
  60 0028 1A60     		str	r2, [r3]
  61              	.L1:
  62 002a 08BD     		pop	{r3, pc}
  63              	.L5:
  64              		.align	2
  65              	.L4:
  66 002c 00000000 		.word	rpiRunning
  67 0030 00000000 		.word	running_
  68              		.cfi_endproc
  69              	.LFE63:
  70              		.size	waitingStateStart, .-waitingStateStart
  71              		.section	.text.waitingStateDrink,"ax",%progbits
  72              		.align	2
  73              		.global	waitingStateDrink
  74              		.thumb
  75              		.thumb_func
  76              		.type	waitingStateDrink, %function
  77              	waitingStateDrink:
  78              	.LFB64:
  18:..\..\..\3semesterProjekt_repository\Ultrasoundv2\Ultrasoundv2.cydsn/waitingState.c ****         }
  19:..\..\..\3semesterProjekt_repository\Ultrasoundv2\Ultrasoundv2.cydsn/waitingState.c ****     }
  20:..\..\..\3semesterProjekt_repository\Ultrasoundv2\Ultrasoundv2.cydsn/waitingState.c **** }
  21:..\..\..\3semesterProjekt_repository\Ultrasoundv2\Ultrasoundv2.cydsn/waitingState.c **** 
  22:..\..\..\3semesterProjekt_repository\Ultrasoundv2\Ultrasoundv2.cydsn/waitingState.c **** void waitingStateDrink()
  23:..\..\..\3semesterProjekt_repository\Ultrasoundv2\Ultrasoundv2.cydsn/waitingState.c **** {
  79              		.loc 1 23 0
  80              		.cfi_startproc
  81              		@ args = 0, pretend = 0, frame = 0
  82              		@ frame_needed = 0, uses_anonymous_args = 0
  83 0000 08B5     		push	{r3, lr}
  84              		.cfi_def_cfa_offset 8
  85              		.cfi_offset 3, -8
  86              		.cfi_offset 14, -4
  24:..\..\..\3semesterProjekt_repository\Ultrasoundv2\Ultrasoundv2.cydsn/waitingState.c ****     running_ = 0;
  87              		.loc 1 24 0
  88 0002 0022     		movs	r2, #0
  89 0004 084B     		ldr	r3, .L10
  90 0006 1A60     		str	r2, [r3]
ARM GAS  C:\Users\LUCASI~1\AppData\Local\Temp\ccMkS20y.s 			page 3


  91              	.L7:
  25:..\..\..\3semesterProjekt_repository\Ultrasoundv2\Ultrasoundv2.cydsn/waitingState.c ****     while(readScaleStatus() == 1)
  92              		.loc 1 25 0 discriminator 1
  93 0008 FFF7FEFF 		bl	readScaleStatus
  94              	.LVL4:
  95 000c 0128     		cmp	r0, #1
  96 000e FBD0     		beq	.L7
  97              	.L8:
  26:..\..\..\3semesterProjekt_repository\Ultrasoundv2\Ultrasoundv2.cydsn/waitingState.c ****     {
  27:..\..\..\3semesterProjekt_repository\Ultrasoundv2\Ultrasoundv2.cydsn/waitingState.c ****         //wait
  28:..\..\..\3semesterProjekt_repository\Ultrasoundv2\Ultrasoundv2.cydsn/waitingState.c ****     }
  29:..\..\..\3semesterProjekt_repository\Ultrasoundv2\Ultrasoundv2.cydsn/waitingState.c ****     while(readScaleStatus()!= 1)
  98              		.loc 1 29 0 discriminator 1
  99 0010 FFF7FEFF 		bl	readScaleStatus
 100              	.LVL5:
 101 0014 0128     		cmp	r0, #1
 102 0016 FBD1     		bne	.L8
  30:..\..\..\3semesterProjekt_repository\Ultrasoundv2\Ultrasoundv2.cydsn/waitingState.c ****     {
  31:..\..\..\3semesterProjekt_repository\Ultrasoundv2\Ultrasoundv2.cydsn/waitingState.c ****         //wait
  32:..\..\..\3semesterProjekt_repository\Ultrasoundv2\Ultrasoundv2.cydsn/waitingState.c ****     }
  33:..\..\..\3semesterProjekt_repository\Ultrasoundv2\Ultrasoundv2.cydsn/waitingState.c **** 
  34:..\..\..\3semesterProjekt_repository\Ultrasoundv2\Ultrasoundv2.cydsn/waitingState.c ****     CyDelay(3000);
 103              		.loc 1 34 0
 104 0018 40F6B830 		movw	r0, #3000
 105 001c FFF7FEFF 		bl	CyDelay
 106              	.LVL6:
  35:..\..\..\3semesterProjekt_repository\Ultrasoundv2\Ultrasoundv2.cydsn/waitingState.c ****     
  36:..\..\..\3semesterProjekt_repository\Ultrasoundv2\Ultrasoundv2.cydsn/waitingState.c ****     running_ = 1;
 107              		.loc 1 36 0
 108 0020 0122     		movs	r2, #1
 109 0022 014B     		ldr	r3, .L10
 110 0024 1A60     		str	r2, [r3]
 111 0026 08BD     		pop	{r3, pc}
 112              	.L11:
 113              		.align	2
 114              	.L10:
 115 0028 00000000 		.word	running_
 116              		.cfi_endproc
 117              	.LFE64:
 118              		.size	waitingStateDrink, .-waitingStateDrink
 119              		.comm	pPixelArray,51,4
 120              		.comm	status_scale,2,2
 121              		.comm	count_not_ok,2,2
 122              		.comm	count_ok,2,2
 123              		.comm	measurement,2,2
 124              		.comm	uartBuffer,256,4
 125              		.comm	result,2,2
 126              		.comm	rpiRunning,4,4
 127              		.comm	NP_g_nFrameBufferSize,4,4
 128              		.comm	NP_g_pFrameBuffer,4,4
 129              		.comm	NP_g_bOwnsBuffer,1,1
 130              		.comm	NP_g_nDMA_TD,1,1
 131              		.comm	NP_g_nDMA_Chan,1,1
 132              		.comm	NP_g_nNumberOfPixels,4,4
 133              		.comm	running_,4,4
 134              		.text
 135              	.Letext0:
ARM GAS  C:\Users\LUCASI~1\AppData\Local\Temp\ccMkS20y.s 			page 4


 136              		.file 2 "c:\\program files (x86)\\cypress\\psoc creator\\4.2\\psoc creator\\import\\gnu\\arm\\5.4.
 137              		.file 3 "c:\\program files (x86)\\cypress\\psoc creator\\4.2\\psoc creator\\import\\gnu\\arm\\5.4.
 138              		.file 4 "Generated_Source\\PSoC5/cytypes.h"
 139              		.file 5 "..\\..\\..\\3semesterProjekt_repository\\Ultrasoundv2\\Ultrasoundv2.cydsn\\waitingState.h
 140              		.file 6 "Generated_Source\\PSoC5/NP_funcs.h"
 141              		.file 7 "Generated_Source\\PSoC5/core_cm3.h"
 142              		.file 8 "..\\..\\..\\3semesterProjekt_repository\\Ultrasoundv2\\Ultrasoundv2.cydsn\\rpiCommunicati
 143              		.file 9 "..\\..\\..\\3semesterProjekt_repository\\Ultrasoundv2\\Ultrasoundv2.cydsn\\scale.h"
 144              		.file 10 "./LedHandler.h"
 145              		.file 11 "..\\..\\..\\3semesterProjekt_repository\\Ultrasoundv2\\Ultrasoundv2.cydsn\\soundApp.h"
 146              		.file 12 "Generated_Source\\PSoC5/CyLib.h"