ARM GAS  C:\Users\Thoma\AppData\Local\Temp\ccXYCq0Z.s 			page 1


   1              		.syntax unified
   2              		.cpu cortex-m3
   3              		.fpu softvfp
   4              		.eabi_attribute 20, 1
   5              		.eabi_attribute 21, 1
   6              		.eabi_attribute 23, 3
   7              		.eabi_attribute 24, 1
   8              		.eabi_attribute 25, 1
   9              		.eabi_attribute 26, 1
  10              		.eabi_attribute 30, 6
  11              		.eabi_attribute 34, 1
  12              		.eabi_attribute 18, 4
  13              		.thumb
  14              		.syntax unified
  15              		.file	"functions.c"
  16              		.text
  17              	.Ltext0:
  18              		.cfi_sections	.debug_frame
  19              		.comm	V_Sample,2,4
  20              		.comm	V_Sample_SUM_1,4,4
  21              		.comm	V_Sample_SUM_2,4,4
  22              		.comm	V_Sample_MIN,2,2
  23              		.comm	V_Sample_MAX,2,2
  24              		.comm	V_Sample_AVG,2,2
  25              		.comm	V_Sample_VAR,4,4
  26              		.comm	V_Sample_AVG_float,4,4
  27              		.comm	i,2,2
  28              		.comm	value,255,4
  29              		.comm	numberOfMeasurements,255,4
  30              		.comm	measurements,4,4
  31              		.comm	max_value,4,4
  32              		.global	__aeabi_f2d
  33              		.global	__aeabi_dadd
  34              		.global	__aeabi_dcmplt
  35              		.section	.rodata
  36              		.align	2
  37              	.LC0:
  38 0000 424F4C44 		.ascii	"BOLDEN ER I KRUSET\000"
  38      454E2045 
  38      52204920 
  38      4B525553 
  38      455400
  39              		.section	.text.CompareValues,"ax",%progbits
  40              		.align	2
  41              		.global	CompareValues
  42              		.thumb
  43              		.thumb_func
  44              		.type	CompareValues, %function
  45              	CompareValues:
  46              	.LFB64:
  47              		.file 1 "functions.c"
   1:functions.c   **** /* ========================================
   2:functions.c   ****  *
   3:functions.c   ****  * Copyright YOUR COMPANY, THE YEAR
   4:functions.c   ****  * All Rights Reserved
   5:functions.c   ****  * UNPUBLISHED, LICENSED SOFTWARE.
   6:functions.c   ****  *
ARM GAS  C:\Users\Thoma\AppData\Local\Temp\ccXYCq0Z.s 			page 2


   7:functions.c   ****  * CONFIDENTIAL AND PROPRIETARY INFORMATION
   8:functions.c   ****  * WHICH IS THE PROPERTY OF your company.
   9:functions.c   ****  *
  10:functions.c   ****  * ========================================
  11:functions.c   **** */
  12:functions.c   **** 
  13:functions.c   **** /* [] END OF FILE */
  14:functions.c   **** #include "functions.h"
  15:functions.c   **** 
  16:functions.c   ****     
  17:functions.c   **** void CompareValues(){
  48              		.loc 1 17 0
  49              		.cfi_startproc
  50              		@ args = 0, pretend = 0, frame = 0
  51              		@ frame_needed = 1, uses_anonymous_args = 0
  52 0000 B0B5     		push	{r4, r5, r7, lr}
  53              		.cfi_def_cfa_offset 16
  54              		.cfi_offset 4, -16
  55              		.cfi_offset 5, -12
  56              		.cfi_offset 7, -8
  57              		.cfi_offset 14, -4
  58 0002 00AF     		add	r7, sp, #0
  59              		.cfi_def_cfa_register 7
  18:functions.c   ****     if (measurements %5 == 0 || measurements == 1){
  60              		.loc 1 18 0
  61 0004 264B     		ldr	r3, .L8+8
  62 0006 1968     		ldr	r1, [r3]
  63 0008 264B     		ldr	r3, .L8+12
  64 000a 83FB0123 		smull	r2, r3, r3, r1
  65 000e 5A10     		asrs	r2, r3, #1
  66 0010 CB17     		asrs	r3, r1, #31
  67 0012 D21A     		subs	r2, r2, r3
  68 0014 1346     		mov	r3, r2
  69 0016 9B00     		lsls	r3, r3, #2
  70 0018 1344     		add	r3, r3, r2
  71 001a CA1A     		subs	r2, r1, r3
  72 001c 002A     		cmp	r2, #0
  73 001e 03D0     		beq	.L2
  74              		.loc 1 18 0 is_stmt 0 discriminator 1
  75 0020 1F4B     		ldr	r3, .L8+8
  76 0022 1B68     		ldr	r3, [r3]
  77 0024 012B     		cmp	r3, #1
  78 0026 34D1     		bne	.L7
  79              	.L2:
  19:functions.c   ****             if (V_Sample_AVG_float + ballEffect < max_value){
  80              		.loc 1 19 0 is_stmt 1
  81 0028 1F4B     		ldr	r3, .L8+16
  82 002a 1B68     		ldr	r3, [r3]	@ float
  83 002c 1846     		mov	r0, r3
  84 002e FFF7FEFF 		bl	__aeabi_f2d
  85 0032 19A3     		adr	r3, .L8
  86 0034 D3E90023 		ldrd	r2, [r3]
  87 0038 FFF7FEFF 		bl	__aeabi_dadd
  88 003c 0346     		mov	r3, r0
  89 003e 0C46     		mov	r4, r1
  90 0040 2546     		mov	r5, r4
  91 0042 1C46     		mov	r4, r3
ARM GAS  C:\Users\Thoma\AppData\Local\Temp\ccXYCq0Z.s 			page 3


  92 0044 194B     		ldr	r3, .L8+20
  93 0046 1B68     		ldr	r3, [r3]	@ float
  94 0048 1846     		mov	r0, r3
  95 004a FFF7FEFF 		bl	__aeabi_f2d
  96 004e 0246     		mov	r2, r0
  97 0050 0B46     		mov	r3, r1
  98 0052 2046     		mov	r0, r4
  99 0054 2946     		mov	r1, r5
 100 0056 FFF7FEFF 		bl	__aeabi_dcmplt
 101 005a 0346     		mov	r3, r0
 102 005c 002B     		cmp	r3, #0
 103 005e 0CD0     		beq	.L4
  20:functions.c   ****             Point_Write(1);
 104              		.loc 1 20 0
 105 0060 0120     		movs	r0, #1
 106 0062 FFF7FEFF 		bl	Point_Write
  21:functions.c   ****             UART_1_PutString("BOLDEN ER I KRUSET");
 107              		.loc 1 21 0
 108 0066 1248     		ldr	r0, .L8+24
 109 0068 FFF7FEFF 		bl	UART_1_PutString
  22:functions.c   ****             CyDelay(2000);
 110              		.loc 1 22 0
 111 006c 4FF4FA60 		mov	r0, #2000
 112 0070 FFF7FEFF 		bl	CyDelay
  23:functions.c   ****             measurements = 0;
 113              		.loc 1 23 0
 114 0074 0A4B     		ldr	r3, .L8+8
 115 0076 0022     		movs	r2, #0
 116 0078 1A60     		str	r2, [r3]
 117              	.L4:
  24:functions.c   ****             }
  25:functions.c   ****             max_value=ADC_DelSig_1_CountsTo_Volts(V_Sample_AVG);
 118              		.loc 1 25 0
 119 007a 0E4B     		ldr	r3, .L8+28
 120 007c B3F90030 		ldrsh	r3, [r3]
 121 0080 1846     		mov	r0, r3
 122 0082 FFF7FEFF 		bl	ADC_DelSig_1_CountsTo_Volts
 123 0086 0246     		mov	r2, r0
 124 0088 084B     		ldr	r3, .L8+20
 125 008a 1A60     		str	r2, [r3]	@ float
  26:functions.c   ****             Point_Write(0);
 126              		.loc 1 26 0
 127 008c 0020     		movs	r0, #0
 128 008e FFF7FEFF 		bl	Point_Write
 129              	.L7:
  27:functions.c   ****         }
  28:functions.c   **** }
 130              		.loc 1 28 0
 131 0092 00BF     		nop
 132 0094 B0BD     		pop	{r4, r5, r7, pc}
 133              	.L9:
 134 0096 00BF     		.align	3
 135              	.L8:
 136 0098 EC51B81E 		.word	515396076
 137 009c 85EBB13F 		.word	1068624773
 138 00a0 00000000 		.word	measurements
 139 00a4 67666666 		.word	1717986919
ARM GAS  C:\Users\Thoma\AppData\Local\Temp\ccXYCq0Z.s 			page 4


 140 00a8 00000000 		.word	V_Sample_AVG_float
 141 00ac 00000000 		.word	max_value
 142 00b0 00000000 		.word	.LC0
 143 00b4 00000000 		.word	V_Sample_AVG
 144              		.cfi_endproc
 145              	.LFE64:
 146              		.size	CompareValues, .-CompareValues
 147              		.global	__aeabi_i2f
 148              		.global	__aeabi_fmul
 149              		.global	__aeabi_fcmplt
 150              		.global	__aeabi_fdiv
 151              		.global	__aeabi_fsub
 152              		.section	.text.Measure,"ax",%progbits
 153              		.align	2
 154              		.global	Measure
 155              		.thumb
 156              		.thumb_func
 157              		.type	Measure, %function
 158              	Measure:
 159              	.LFB65:
  29:functions.c   ****  
  30:functions.c   **** float Measure(){
 160              		.loc 1 30 0
 161              		.cfi_startproc
 162              		@ args = 0, pretend = 0, frame = 0
 163              		@ frame_needed = 1, uses_anonymous_args = 0
 164 0000 B0B5     		push	{r4, r5, r7, lr}
 165              		.cfi_def_cfa_offset 16
 166              		.cfi_offset 4, -16
 167              		.cfi_offset 5, -12
 168              		.cfi_offset 7, -8
 169              		.cfi_offset 14, -4
 170 0002 00AF     		add	r7, sp, #0
 171              		.cfi_def_cfa_register 7
  31:functions.c   ****     
  32:functions.c   **** 	    V_Sample_SUM_1=0;
 172              		.loc 1 32 0
 173 0004 424B     		ldr	r3, .L20
 174 0006 0022     		movs	r2, #0
 175 0008 1A60     		str	r2, [r3]
  33:functions.c   **** 		V_Sample_SUM_2=0;
 176              		.loc 1 33 0
 177 000a 424B     		ldr	r3, .L20+4
 178 000c 4FF00002 		mov	r2, #0
 179 0010 1A60     		str	r2, [r3]	@ float
  34:functions.c   **** 		V_Sample_MIN= ((1<<15)-1) ; // int: ((1<<15)-1) uint: 0-1 (32767)
 180              		.loc 1 34 0
 181 0012 414B     		ldr	r3, .L20+8
 182 0014 47F6FF72 		movw	r2, #32767
 183 0018 1A80     		strh	r2, [r3]	@ movhi
  35:functions.c   **** 		V_Sample_MAX=1 << 15;       // int: 1<<15       uint: 0   (-32768)
 184              		.loc 1 35 0
 185 001a 404B     		ldr	r3, .L20+12
 186 001c 4FF40042 		mov	r2, #32768
 187 0020 1A80     		strh	r2, [r3]	@ movhi
  36:functions.c   **** 
  37:functions.c   **** 		for(i=0;i<(1 << (N_Sample));i++)    //Så længe i er mindre end 1<<N_sample  (1*2^10) = 1024
ARM GAS  C:\Users\Thoma\AppData\Local\Temp\ccXYCq0Z.s 			page 5


 188              		.loc 1 37 0
 189 0022 3F4B     		ldr	r3, .L20+16
 190 0024 0022     		movs	r2, #0
 191 0026 1A80     		strh	r2, [r3]	@ movhi
 192 0028 0EE0     		b	.L11
 193              	.L13:
  38:functions.c   **** 		{
  39:functions.c   **** 			Control_Reg_1_Control=1;
 194              		.loc 1 39 0
 195 002a 3E4B     		ldr	r3, .L20+20
 196 002c 0122     		movs	r2, #1
 197 002e 1A70     		strb	r2, [r3]
  40:functions.c   **** 			while(Control_Reg_1_Control);   // Hvad fanden sker der her?? WHILE så længe control register 
 198              		.loc 1 40 0
 199 0030 00BF     		nop
 200              	.L12:
 201              		.loc 1 40 0 is_stmt 0 discriminator 1
 202 0032 3C4B     		ldr	r3, .L20+20
 203 0034 1B78     		ldrb	r3, [r3]
 204 0036 DBB2     		uxtb	r3, r3
 205 0038 002B     		cmp	r3, #0
 206 003a FAD1     		bne	.L12
  37:functions.c   **** 		{
 207              		.loc 1 37 0 is_stmt 1 discriminator 2
 208 003c 384B     		ldr	r3, .L20+16
 209 003e 1B88     		ldrh	r3, [r3]
 210 0040 0133     		adds	r3, r3, #1
 211 0042 9AB2     		uxth	r2, r3
 212 0044 364B     		ldr	r3, .L20+16
 213 0046 1A80     		strh	r2, [r3]	@ movhi
 214              	.L11:
  37:functions.c   **** 		{
 215              		.loc 1 37 0 is_stmt 0 discriminator 1
 216 0048 354B     		ldr	r3, .L20+16
 217 004a 1B88     		ldrh	r3, [r3]
 218 004c B3F5806F 		cmp	r3, #1024
 219 0050 EBD3     		bcc	.L13
  41:functions.c   **** 		}
  42:functions.c   ****         
  43:functions.c   **** 		V_Sample_AVG = V_Sample_SUM_1 >> (N_Sample);     // V_Sample_AVG er lig med 0 >> 10 (10*2^0) = 10
 220              		.loc 1 43 0 is_stmt 1
 221 0052 2F4B     		ldr	r3, .L20
 222 0054 1B68     		ldr	r3, [r3]
 223 0056 9B12     		asrs	r3, r3, #10
 224 0058 1AB2     		sxth	r2, r3
 225 005a 334B     		ldr	r3, .L20+24
 226 005c 1A80     		strh	r2, [r3]	@ movhi
  44:functions.c   ****         
  45:functions.c   **** 		if(V_Sample_SUM_2>((float)V_Sample_AVG)*((float)V_Sample_AVG))
 227              		.loc 1 45 0
 228 005e 324B     		ldr	r3, .L20+24
 229 0060 B3F90030 		ldrsh	r3, [r3]
 230 0064 1846     		mov	r0, r3
 231 0066 FFF7FEFF 		bl	__aeabi_i2f
 232 006a 0446     		mov	r4, r0
 233 006c 2E4B     		ldr	r3, .L20+24
 234 006e B3F90030 		ldrsh	r3, [r3]
ARM GAS  C:\Users\Thoma\AppData\Local\Temp\ccXYCq0Z.s 			page 6


 235 0072 1846     		mov	r0, r3
 236 0074 FFF7FEFF 		bl	__aeabi_i2f
 237 0078 0346     		mov	r3, r0
 238 007a 1946     		mov	r1, r3
 239 007c 2046     		mov	r0, r4
 240 007e FFF7FEFF 		bl	__aeabi_fmul
 241 0082 0346     		mov	r3, r0
 242 0084 1A46     		mov	r2, r3
 243 0086 234B     		ldr	r3, .L20+4
 244 0088 1B68     		ldr	r3, [r3]	@ float
 245 008a 1946     		mov	r1, r3
 246 008c 1046     		mov	r0, r2
 247 008e FFF7FEFF 		bl	__aeabi_fcmplt
 248 0092 0346     		mov	r3, r0
 249 0094 002B     		cmp	r3, #0
 250 0096 24D0     		beq	.L19
  46:functions.c   **** 		{
  47:functions.c   **** 			V_Sample_VAR=(V_Sample_SUM_2/( 1 << N_Sample))-((float)V_Sample_AVG)*((float)V_Sample_AVG);
 251              		.loc 1 47 0
 252 0098 1E4B     		ldr	r3, .L20+4
 253 009a 1B68     		ldr	r3, [r3]	@ float
 254 009c 4FF08941 		mov	r1, #1149239296
 255 00a0 1846     		mov	r0, r3
 256 00a2 FFF7FEFF 		bl	__aeabi_fdiv
 257 00a6 0346     		mov	r3, r0
 258 00a8 1C46     		mov	r4, r3
 259 00aa 1F4B     		ldr	r3, .L20+24
 260 00ac B3F90030 		ldrsh	r3, [r3]
 261 00b0 1846     		mov	r0, r3
 262 00b2 FFF7FEFF 		bl	__aeabi_i2f
 263 00b6 0546     		mov	r5, r0
 264 00b8 1B4B     		ldr	r3, .L20+24
 265 00ba B3F90030 		ldrsh	r3, [r3]
 266 00be 1846     		mov	r0, r3
 267 00c0 FFF7FEFF 		bl	__aeabi_i2f
 268 00c4 0346     		mov	r3, r0
 269 00c6 1946     		mov	r1, r3
 270 00c8 2846     		mov	r0, r5
 271 00ca FFF7FEFF 		bl	__aeabi_fmul
 272 00ce 0346     		mov	r3, r0
 273 00d0 1946     		mov	r1, r3
 274 00d2 2046     		mov	r0, r4
 275 00d4 FFF7FEFF 		bl	__aeabi_fsub
 276 00d8 0346     		mov	r3, r0
 277 00da 1A46     		mov	r2, r3
 278 00dc 134B     		ldr	r3, .L20+28
 279 00de 1A60     		str	r2, [r3]	@ float
 280 00e0 03E0     		b	.L16
 281              	.L19:
  48:functions.c   **** 		}
  49:functions.c   **** 		else
  50:functions.c   **** 		{
  51:functions.c   **** 			V_Sample_VAR=0;
 282              		.loc 1 51 0
 283 00e2 124B     		ldr	r3, .L20+28
 284 00e4 4FF00002 		mov	r2, #0
 285 00e8 1A60     		str	r2, [r3]	@ float
ARM GAS  C:\Users\Thoma\AppData\Local\Temp\ccXYCq0Z.s 			page 7


 286              	.L16:
  52:functions.c   **** 		}
  53:functions.c   ****         
  54:functions.c   ****         measurements++;
 287              		.loc 1 54 0
 288 00ea 114B     		ldr	r3, .L20+32
 289 00ec 1B68     		ldr	r3, [r3]
 290 00ee 0133     		adds	r3, r3, #1
 291 00f0 0F4A     		ldr	r2, .L20+32
 292 00f2 1360     		str	r3, [r2]
  55:functions.c   ****         
  56:functions.c   **** 		return V_Sample_AVG_float=ADC_DelSig_1_CountsTo_Volts(V_Sample_AVG);
 293              		.loc 1 56 0
 294 00f4 0C4B     		ldr	r3, .L20+24
 295 00f6 B3F90030 		ldrsh	r3, [r3]
 296 00fa 1846     		mov	r0, r3
 297 00fc FFF7FEFF 		bl	ADC_DelSig_1_CountsTo_Volts
 298 0100 0246     		mov	r2, r0
 299 0102 0C4B     		ldr	r3, .L20+36
 300 0104 1A60     		str	r2, [r3]	@ float
 301 0106 0B4B     		ldr	r3, .L20+36
 302 0108 1B68     		ldr	r3, [r3]	@ float
  57:functions.c   ****         
  58:functions.c   ****         
  59:functions.c   **** }
 303              		.loc 1 59 0
 304 010a 1846     		mov	r0, r3
 305 010c B0BD     		pop	{r4, r5, r7, pc}
 306              	.L21:
 307 010e 00BF     		.align	2
 308              	.L20:
 309 0110 00000000 		.word	V_Sample_SUM_1
 310 0114 00000000 		.word	V_Sample_SUM_2
 311 0118 00000000 		.word	V_Sample_MIN
 312 011c 00000000 		.word	V_Sample_MAX
 313 0120 00000000 		.word	i
 314 0124 78640040 		.word	1073767544
 315 0128 00000000 		.word	V_Sample_AVG
 316 012c 00000000 		.word	V_Sample_VAR
 317 0130 00000000 		.word	measurements
 318 0134 00000000 		.word	V_Sample_AVG_float
 319              		.cfi_endproc
 320              	.LFE65:
 321              		.size	Measure, .-Measure
 322              		.section	.text.DMA_1_Config,"ax",%progbits
 323              		.align	2
 324              		.global	DMA_1_Config
 325              		.thumb
 326              		.thumb_func
 327              		.type	DMA_1_Config, %function
 328              	DMA_1_Config:
 329              	.LFB66:
  60:functions.c   ****     
  61:functions.c   **** void DMA_1_Config()
  62:functions.c   **** {
 330              		.loc 1 62 0
 331              		.cfi_startproc
ARM GAS  C:\Users\Thoma\AppData\Local\Temp\ccXYCq0Z.s 			page 8


 332              		@ args = 0, pretend = 0, frame = 8
 333              		@ frame_needed = 1, uses_anonymous_args = 0
 334 0000 80B5     		push	{r7, lr}
 335              		.cfi_def_cfa_offset 8
 336              		.cfi_offset 7, -8
 337              		.cfi_offset 14, -4
 338 0002 82B0     		sub	sp, sp, #8
 339              		.cfi_def_cfa_offset 16
 340 0004 00AF     		add	r7, sp, #0
 341              		.cfi_def_cfa_register 7
  63:functions.c   **** 	/* Variable declarations for DMA_1 */
  64:functions.c   **** 	/* Move these variable declarations to the top of the function */
  65:functions.c   **** 	uint8 DMA_1_Chan;
  66:functions.c   **** 	uint8 DMA_1_TD[1];
  67:functions.c   **** 
  68:functions.c   **** 	/* DMA Configuration for DMA_1 */
  69:functions.c   **** 	#define DMA_1_BYTES_PER_BURST 2
  70:functions.c   **** 	#define DMA_1_REQUEST_PER_BURST 1
  71:functions.c   **** 	#define DMA_1_SRC_BASE (CYDEV_PERIPH_BASE)
  72:functions.c   **** 	#define DMA_1_DST_BASE (CYDEV_PERIPH_BASE)
  73:functions.c   **** 	DMA_1_Chan = DMA_1_DmaInitialize(DMA_1_BYTES_PER_BURST, DMA_1_REQUEST_PER_BURST, 
 342              		.loc 1 73 0
 343 0006 4FF48043 		mov	r3, #16384
 344 000a 4FF48042 		mov	r2, #16384
 345 000e 0121     		movs	r1, #1
 346 0010 0220     		movs	r0, #2
 347 0012 FFF7FEFF 		bl	DMA_1_DmaInitialize
 348 0016 0346     		mov	r3, r0
 349 0018 FB71     		strb	r3, [r7, #7]
  74:functions.c   **** 	HI16(DMA_1_SRC_BASE), HI16(DMA_1_DST_BASE));
  75:functions.c   **** 	DMA_1_TD[0] = CyDmaTdAllocate();
 350              		.loc 1 75 0
 351 001a FFF7FEFF 		bl	CyDmaTdAllocate
 352 001e 0346     		mov	r3, r0
 353 0020 3B71     		strb	r3, [r7, #4]
  76:functions.c   **** 	CyDmaTdSetConfiguration(DMA_1_TD[0], 2, DMA_INVALID_TD, TD_INC_DST_ADR);
 354              		.loc 1 76 0
 355 0022 3879     		ldrb	r0, [r7, #4]	@ zero_extendqisi2
 356 0024 0223     		movs	r3, #2
 357 0026 FF22     		movs	r2, #255
 358 0028 0221     		movs	r1, #2
 359 002a FFF7FEFF 		bl	CyDmaTdSetConfiguration
  77:functions.c   **** 	CyDmaTdSetAddress(DMA_1_TD[0], LO16((uint32)ADC_DelSig_1_DEC_SAMP_PTR), LO16((uint32)Filter_1_STAG
 360              		.loc 1 77 0
 361 002e 3B79     		ldrb	r3, [r7, #4]	@ zero_extendqisi2
 362 0030 4CF2A172 		movw	r2, #51105
 363 0034 44F61061 		movw	r1, #19984
 364 0038 1846     		mov	r0, r3
 365 003a FFF7FEFF 		bl	CyDmaTdSetAddress
  78:functions.c   **** 	CyDmaChSetInitialTd(DMA_1_Chan, DMA_1_TD[0]);
 366              		.loc 1 78 0
 367 003e 3A79     		ldrb	r2, [r7, #4]	@ zero_extendqisi2
 368 0040 FB79     		ldrb	r3, [r7, #7]	@ zero_extendqisi2
 369 0042 1146     		mov	r1, r2
 370 0044 1846     		mov	r0, r3
 371 0046 FFF7FEFF 		bl	CyDmaChSetInitialTd
  79:functions.c   **** 	CyDmaChEnable(DMA_1_Chan, 1);
ARM GAS  C:\Users\Thoma\AppData\Local\Temp\ccXYCq0Z.s 			page 9


 372              		.loc 1 79 0
 373 004a FB79     		ldrb	r3, [r7, #7]	@ zero_extendqisi2
 374 004c 0121     		movs	r1, #1
 375 004e 1846     		mov	r0, r3
 376 0050 FFF7FEFF 		bl	CyDmaChEnable
  80:functions.c   **** 
  81:functions.c   **** }
 377              		.loc 1 81 0
 378 0054 00BF     		nop
 379 0056 0837     		adds	r7, r7, #8
 380              		.cfi_def_cfa_offset 8
 381 0058 BD46     		mov	sp, r7
 382              		.cfi_def_cfa_register 13
 383              		@ sp needed
 384 005a 80BD     		pop	{r7, pc}
 385              		.cfi_endproc
 386              	.LFE66:
 387              		.size	DMA_1_Config, .-DMA_1_Config
 388              		.section	.text.DMA_2_Config,"ax",%progbits
 389              		.align	2
 390              		.global	DMA_2_Config
 391              		.thumb
 392              		.thumb_func
 393              		.type	DMA_2_Config, %function
 394              	DMA_2_Config:
 395              	.LFB67:
  82:functions.c   **** 
  83:functions.c   **** void DMA_2_Config()
  84:functions.c   **** {
 396              		.loc 1 84 0
 397              		.cfi_startproc
 398              		@ args = 0, pretend = 0, frame = 8
 399              		@ frame_needed = 1, uses_anonymous_args = 0
 400 0000 80B5     		push	{r7, lr}
 401              		.cfi_def_cfa_offset 8
 402              		.cfi_offset 7, -8
 403              		.cfi_offset 14, -4
 404 0002 82B0     		sub	sp, sp, #8
 405              		.cfi_def_cfa_offset 16
 406 0004 00AF     		add	r7, sp, #0
 407              		.cfi_def_cfa_register 7
  85:functions.c   ****     /* Variable declarations for DMA_2 */
  86:functions.c   ****     /* Move these variable declarations to the top of the function */
  87:functions.c   ****     uint8 DMA_2_Chan;
  88:functions.c   ****     uint8 DMA_2_TD[1];
  89:functions.c   **** 
  90:functions.c   ****     /* DMA Configuration for DMA_2 */
  91:functions.c   ****     #define DMA_2_BYTES_PER_BURST 2
  92:functions.c   ****     #define DMA_2_REQUEST_PER_BURST 1
  93:functions.c   ****     #define DMA_2_SRC_BASE (CYDEV_PERIPH_BASE)
  94:functions.c   ****     #define DMA_2_DST_BASE (CYDEV_SRAM_BASE)
  95:functions.c   ****     DMA_2_Chan = DMA_2_DmaInitialize(DMA_2_BYTES_PER_BURST, DMA_2_REQUEST_PER_BURST, 
 408              		.loc 1 95 0
 409 0006 41F6FF73 		movw	r3, #8191
 410 000a 4FF48042 		mov	r2, #16384
 411 000e 0121     		movs	r1, #1
 412 0010 0220     		movs	r0, #2
ARM GAS  C:\Users\Thoma\AppData\Local\Temp\ccXYCq0Z.s 			page 10


 413 0012 FFF7FEFF 		bl	DMA_2_DmaInitialize
 414 0016 0346     		mov	r3, r0
 415 0018 FB71     		strb	r3, [r7, #7]
  96:functions.c   ****     HI16(DMA_2_SRC_BASE), HI16(DMA_2_DST_BASE));
  97:functions.c   ****     DMA_2_TD[0] = CyDmaTdAllocate();
 416              		.loc 1 97 0
 417 001a FFF7FEFF 		bl	CyDmaTdAllocate
 418 001e 0346     		mov	r3, r0
 419 0020 3B71     		strb	r3, [r7, #4]
  98:functions.c   ****     CyDmaTdSetConfiguration(DMA_2_TD[0], 2, DMA_INVALID_TD,  DMA_2__TD_TERMOUT_EN | TD_INC_SRC_ADR 
 420              		.loc 1 98 0
 421 0022 3879     		ldrb	r0, [r7, #4]	@ zero_extendqisi2
 422 0024 0523     		movs	r3, #5
 423 0026 FF22     		movs	r2, #255
 424 0028 0221     		movs	r1, #2
 425 002a FFF7FEFF 		bl	CyDmaTdSetConfiguration
  99:functions.c   ****     CyDmaTdSetAddress(DMA_2_TD[0], LO16((uint32)Filter_1_HOLDAM_PTR), LO16((uint32)V_Sample));
 426              		.loc 1 99 0
 427 002e 3B79     		ldrb	r3, [r7, #4]	@ zero_extendqisi2
 428 0030 0A4A     		ldr	r2, .L24
 429 0032 92B2     		uxth	r2, r2
 430 0034 4CF2A971 		movw	r1, #51113
 431 0038 1846     		mov	r0, r3
 432 003a FFF7FEFF 		bl	CyDmaTdSetAddress
 100:functions.c   ****     CyDmaChSetInitialTd(DMA_2_Chan, DMA_2_TD[0]);
 433              		.loc 1 100 0
 434 003e 3A79     		ldrb	r2, [r7, #4]	@ zero_extendqisi2
 435 0040 FB79     		ldrb	r3, [r7, #7]	@ zero_extendqisi2
 436 0042 1146     		mov	r1, r2
 437 0044 1846     		mov	r0, r3
 438 0046 FFF7FEFF 		bl	CyDmaChSetInitialTd
 101:functions.c   ****     CyDmaChEnable(DMA_2_Chan, 1);
 439              		.loc 1 101 0
 440 004a FB79     		ldrb	r3, [r7, #7]	@ zero_extendqisi2
 441 004c 0121     		movs	r1, #1
 442 004e 1846     		mov	r0, r3
 443 0050 FFF7FEFF 		bl	CyDmaChEnable
 102:functions.c   **** }
 444              		.loc 1 102 0
 445 0054 00BF     		nop
 446 0056 0837     		adds	r7, r7, #8
 447              		.cfi_def_cfa_offset 8
 448 0058 BD46     		mov	sp, r7
 449              		.cfi_def_cfa_register 13
 450              		@ sp needed
 451 005a 80BD     		pop	{r7, pc}
 452              	.L25:
 453              		.align	2
 454              	.L24:
 455 005c 00000000 		.word	V_Sample
 456              		.cfi_endproc
 457              	.LFE67:
 458              		.size	DMA_2_Config, .-DMA_2_Config
 459              		.section	.text.Init,"ax",%progbits
 460              		.align	2
 461              		.global	Init
 462              		.thumb
ARM GAS  C:\Users\Thoma\AppData\Local\Temp\ccXYCq0Z.s 			page 11


 463              		.thumb_func
 464              		.type	Init, %function
 465              	Init:
 466              	.LFB68:
 103:functions.c   **** 
 104:functions.c   **** void Init()
 105:functions.c   **** {
 467              		.loc 1 105 0
 468              		.cfi_startproc
 469              		@ args = 0, pretend = 0, frame = 0
 470              		@ frame_needed = 1, uses_anonymous_args = 0
 471 0000 80B5     		push	{r7, lr}
 472              		.cfi_def_cfa_offset 8
 473              		.cfi_offset 7, -8
 474              		.cfi_offset 14, -4
 475 0002 00AF     		add	r7, sp, #0
 476              		.cfi_def_cfa_register 7
 106:functions.c   **** 	Clock_1_Start();
 477              		.loc 1 106 0
 478 0004 FFF7FEFF 		bl	Clock_1_Start
 107:functions.c   ****     Opamp_1_Start();
 479              		.loc 1 107 0
 480 0008 FFF7FEFF 		bl	Opamp_1_Start
 108:functions.c   **** 	TIA_1_Start();
 481              		.loc 1 108 0
 482 000c FFF7FEFF 		bl	TIA_1_Start
 109:functions.c   ****     UART_1_Start();
 483              		.loc 1 109 0
 484 0010 FFF7FEFF 		bl	UART_1_Start
 110:functions.c   **** 	Mixer_1_Start();
 485              		.loc 1 110 0
 486 0014 FFF7FEFF 		bl	Mixer_1_Start
 111:functions.c   **** 	ADC_DelSig_1_Start();
 487              		.loc 1 111 0
 488 0018 FFF7FEFF 		bl	ADC_DelSig_1_Start
 112:functions.c   **** 	ADC_DelSig_1_SetCoherency(ADC_DelSig_1_COHER_MID);
 489              		.loc 1 112 0
 490 001c 0220     		movs	r0, #2
 491 001e FFF7FEFF 		bl	ADC_DelSig_1_SetCoherency
 113:functions.c   **** 	ADC_DelSig_1_StartConvert();
 492              		.loc 1 113 0
 493 0022 FFF7FEFF 		bl	ADC_DelSig_1_StartConvert
 114:functions.c   **** 	DMA_1_Config();
 494              		.loc 1 114 0
 495 0026 FFF7FEFF 		bl	DMA_1_Config
 115:functions.c   **** 	Filter_1_Start();
 496              		.loc 1 115 0
 497 002a FFF7FEFF 		bl	Filter_1_Start
 116:functions.c   **** 	Filter_1_SetCoherency(Filter_1_CHANNEL_A, Filter_1_KEY_HIGH);
 498              		.loc 1 116 0
 499 002e 0221     		movs	r1, #2
 500 0030 0020     		movs	r0, #0
 501 0032 FFF7FEFF 		bl	Filter_1_SetCoherency
 117:functions.c   **** 	DMA_2_Config();
 502              		.loc 1 117 0
 503 0036 FFF7FEFF 		bl	DMA_2_Config
 118:functions.c   **** 	
ARM GAS  C:\Users\Thoma\AppData\Local\Temp\ccXYCq0Z.s 			page 12


 119:functions.c   **** 	isr_2_StartEx(Sample_int);
 504              		.loc 1 119 0
 505 003a 0448     		ldr	r0, .L27
 506 003c FFF7FEFF 		bl	isr_2_StartEx
 120:functions.c   ****     //calibrate_StartEx(calibrate_isr);
 121:functions.c   **** 	Control_Reg_1_Control=0;
 507              		.loc 1 121 0
 508 0040 034B     		ldr	r3, .L27+4
 509 0042 0022     		movs	r2, #0
 510 0044 1A70     		strb	r2, [r3]
 122:functions.c   **** }
 511              		.loc 1 122 0
 512 0046 00BF     		nop
 513 0048 80BD     		pop	{r7, pc}
 514              	.L28:
 515 004a 00BF     		.align	2
 516              	.L27:
 517 004c 00000000 		.word	Sample_int
 518 0050 78640040 		.word	1073767544
 519              		.cfi_endproc
 520              	.LFE68:
 521              		.size	Init, .-Init
 522              		.global	__aeabi_fadd
 523              		.section	.text.Sample_int,"ax",%progbits
 524              		.align	2
 525              		.global	Sample_int
 526              		.thumb
 527              		.thumb_func
 528              		.type	Sample_int, %function
 529              	Sample_int:
 530              	.LFB69:
 123:functions.c   **** 
 124:functions.c   **** CY_ISR(Sample_int)
 125:functions.c   **** {
 531              		.loc 1 125 0
 532              		.cfi_startproc
 533              		@ args = 0, pretend = 0, frame = 0
 534              		@ frame_needed = 1, uses_anonymous_args = 0
 535 0000 98B5     		push	{r3, r4, r7, lr}
 536              		.cfi_def_cfa_offset 16
 537              		.cfi_offset 3, -16
 538              		.cfi_offset 4, -12
 539              		.cfi_offset 7, -8
 540              		.cfi_offset 14, -4
 541 0002 00AF     		add	r7, sp, #0
 542              		.cfi_def_cfa_register 7
 126:functions.c   **** 	Control_Reg_1_Control=0;
 543              		.loc 1 126 0
 544 0004 224B     		ldr	r3, .L33
 545 0006 0022     		movs	r2, #0
 546 0008 1A70     		strb	r2, [r3]
 127:functions.c   **** 	V_Sample_SUM_1=V_Sample_SUM_1+V_Sample[0];
 547              		.loc 1 127 0
 548 000a 224B     		ldr	r3, .L33+4
 549 000c B3F90030 		ldrsh	r3, [r3]
 550 0010 1A46     		mov	r2, r3
 551 0012 214B     		ldr	r3, .L33+8
ARM GAS  C:\Users\Thoma\AppData\Local\Temp\ccXYCq0Z.s 			page 13


 552 0014 1B68     		ldr	r3, [r3]
 553 0016 1344     		add	r3, r3, r2
 554 0018 1F4A     		ldr	r2, .L33+8
 555 001a 1360     		str	r3, [r2]
 128:functions.c   **** 	V_Sample_SUM_2=V_Sample_SUM_2+(((float)V_Sample[0])*((float)V_Sample[0]));
 556              		.loc 1 128 0
 557 001c 1D4B     		ldr	r3, .L33+4
 558 001e B3F90030 		ldrsh	r3, [r3]
 559 0022 1846     		mov	r0, r3
 560 0024 FFF7FEFF 		bl	__aeabi_i2f
 561 0028 0446     		mov	r4, r0
 562 002a 1A4B     		ldr	r3, .L33+4
 563 002c B3F90030 		ldrsh	r3, [r3]
 564 0030 1846     		mov	r0, r3
 565 0032 FFF7FEFF 		bl	__aeabi_i2f
 566 0036 0346     		mov	r3, r0
 567 0038 1946     		mov	r1, r3
 568 003a 2046     		mov	r0, r4
 569 003c FFF7FEFF 		bl	__aeabi_fmul
 570 0040 0346     		mov	r3, r0
 571 0042 1A46     		mov	r2, r3
 572 0044 154B     		ldr	r3, .L33+12
 573 0046 1B68     		ldr	r3, [r3]	@ float
 574 0048 1946     		mov	r1, r3
 575 004a 1046     		mov	r0, r2
 576 004c FFF7FEFF 		bl	__aeabi_fadd
 577 0050 0346     		mov	r3, r0
 578 0052 1A46     		mov	r2, r3
 579 0054 114B     		ldr	r3, .L33+12
 580 0056 1A60     		str	r2, [r3]	@ float
 129:functions.c   **** 	if(V_Sample[0]<V_Sample_MIN)V_Sample_MIN=V_Sample[0];
 581              		.loc 1 129 0
 582 0058 0E4B     		ldr	r3, .L33+4
 583 005a B3F90020 		ldrsh	r2, [r3]
 584 005e 104B     		ldr	r3, .L33+16
 585 0060 B3F90030 		ldrsh	r3, [r3]
 586 0064 9A42     		cmp	r2, r3
 587 0066 04DA     		bge	.L30
 588              		.loc 1 129 0 is_stmt 0 discriminator 1
 589 0068 0A4B     		ldr	r3, .L33+4
 590 006a B3F90020 		ldrsh	r2, [r3]
 591 006e 0C4B     		ldr	r3, .L33+16
 592 0070 1A80     		strh	r2, [r3]	@ movhi
 593              	.L30:
 130:functions.c   **** 	if(V_Sample[0]>V_Sample_MAX)V_Sample_MAX=V_Sample[0];
 594              		.loc 1 130 0 is_stmt 1
 595 0072 084B     		ldr	r3, .L33+4
 596 0074 B3F90020 		ldrsh	r2, [r3]
 597 0078 0A4B     		ldr	r3, .L33+20
 598 007a B3F90030 		ldrsh	r3, [r3]
 599 007e 9A42     		cmp	r2, r3
 600 0080 04DD     		ble	.L32
 601              		.loc 1 130 0 is_stmt 0 discriminator 1
 602 0082 044B     		ldr	r3, .L33+4
 603 0084 B3F90020 		ldrsh	r2, [r3]
 604 0088 064B     		ldr	r3, .L33+20
 605 008a 1A80     		strh	r2, [r3]	@ movhi
ARM GAS  C:\Users\Thoma\AppData\Local\Temp\ccXYCq0Z.s 			page 14


 606              	.L32:
 131:functions.c   **** }...
 607              		.loc 1 131 0 is_stmt 1
 608 008c 00BF     		nop
 609 008e 98BD     		pop	{r3, r4, r7, pc}
 610              	.L34:
 611              		.align	2
 612              	.L33:
 613 0090 78640040 		.word	1073767544
 614 0094 00000000 		.word	V_Sample
 615 0098 00000000 		.word	V_Sample_SUM_1
 616 009c 00000000 		.word	V_Sample_SUM_2
 617 00a0 00000000 		.word	V_Sample_MIN
 618 00a4 00000000 		.word	V_Sample_MAX
 619              		.cfi_endproc
 620              	.LFE69:
 621              		.size	Sample_int, .-Sample_int
 622              		.text
 623              	.Letext0:
 624              		.file 2 "c:\\program files (x86)\\cypress\\psoc creator\\4.2\\psoc creator\\import\\gnu\\arm\\5.4.
 625              		.file 3 "c:\\program files (x86)\\cypress\\psoc creator\\4.2\\psoc creator\\import\\gnu\\arm\\5.4.
 626              		.file 4 "Generated_Source\\PSoC5/cytypes.h"
 627              		.file 5 "Generated_Source\\PSoC5/core_cm3.h"
 628              		.file 6 "functions.h"