ARM GAS  C:\Users\Thoma\AppData\Local\Temp\ccOGPhtk.s 			page 1


   1              		.syntax unified
   2              		.cpu cortex-m3
   3              		.fpu softvfp
   4              		.eabi_attribute 20, 1
   5              		.eabi_attribute 21, 1
   6              		.eabi_attribute 23, 3
   7              		.eabi_attribute 24, 1
   8              		.eabi_attribute 25, 1
   9              		.eabi_attribute 26, 1
  10              		.eabi_attribute 30, 6
  11              		.eabi_attribute 34, 1
  12              		.eabi_attribute 18, 4
  13              		.thumb
  14              		.syntax unified
  15              		.file	"main.c"
  16              		.text
  17              	.Ltext0:
  18              		.cfi_sections	.debug_frame
  19              		.comm	V_Sample,2,4
  20              		.comm	V_Sample_SUM_1,4,4
  21              		.comm	V_Sample_SUM_2,4,4
  22              		.comm	V_Sample_MIN,2,2
  23              		.comm	V_Sample_MAX,2,2
  24              		.comm	V_Sample_AVG,2,2
  25              		.comm	V_Sample_VAR,4,4
  26              		.comm	V_Sample_AVG_float,4,4
  27              		.comm	i,2,2
  28              		.comm	value,255,4
  29              		.comm	numberOfMeasurements,255,4
  30              		.comm	measurements,4,4
  31              		.comm	max_value,4,4
  32              		.global	__aeabi_f2d
  33              		.section	.rodata
  34              		.align	2
  35              	.LC0:
  36 0000 20565F53 		.ascii	" V_Sample_avg_float = %f \015 \000"
  36      616D706C 
  36      655F6176 
  36      675F666C 
  36      6F617420 
  37              		.align	2
  38              	.LC1:
  39 001c 20416E74 		.ascii	" Antal maalinger = %d \015 \000"
  39      616C206D 
  39      61616C69 
  39      6E676572 
  39      203D2025 
  40              		.section	.text.main,"ax",%progbits
  41              		.align	2
  42              		.global	main
  43              		.thumb
  44              		.thumb_func
  45              		.type	main, %function
  46              	main:
  47              	.LFB64:
  48              		.file 1 "main.c"
   1:main.c        **** /* ========================================
ARM GAS  C:\Users\Thoma\AppData\Local\Temp\ccOGPhtk.s 			page 2


   2:main.c        ****  *
   3:main.c        ****  * Copyright YOUR COMPANY, THE YEAR
   4:main.c        ****  * All Rights Reserved
   5:main.c        ****  * UNPUBLISHED, LICENSED SOFTWARE.
   6:main.c        ****  *
   7:main.c        ****  * CONFIDENTIAL AND PROPRIETARY INFORMATION
   8:main.c        ****  * WHICH IS THE PROPERTY OF your company.
   9:main.c        ****  *
  10:main.c        ****  * ========================================
  11:main.c        **** */
  12:main.c        **** 
  13:main.c        **** #include "functions.h"
  14:main.c        **** 
  15:main.c        **** 
  16:main.c        **** int main()
  17:main.c        **** {
  49              		.loc 1 17 0
  50              		.cfi_startproc
  51              		@ args = 0, pretend = 0, frame = 0
  52              		@ frame_needed = 1, uses_anonymous_args = 0
  53 0000 90B5     		push	{r4, r7, lr}
  54              		.cfi_def_cfa_offset 12
  55              		.cfi_offset 4, -12
  56              		.cfi_offset 7, -8
  57              		.cfi_offset 14, -4
  58 0002 83B0     		sub	sp, sp, #12
  59              		.cfi_def_cfa_offset 24
  60 0004 02AF     		add	r7, sp, #8
  61              		.cfi_def_cfa 7, 16
  18:main.c        **** 	Init();
  62              		.loc 1 18 0
  63 0006 FFF7FEFF 		bl	Init
  19:main.c        **** 
  20:main.c        **** 	CyGlobalIntEnable; /* Uncomment this line to enable global interrupts. */
  64              		.loc 1 20 0
  65              		.syntax unified
  66              	@ 20 "main.c" 1
  67 000a 62B6     		CPSIE   i
  68              	@ 0 "" 2
  69              		.thumb
  70              		.syntax unified
  71              	.L2:
  21:main.c        ****  
  22:main.c        ****     for(;;)
  23:main.c        ****     {
  24:main.c        **** 	    Measure();
  72              		.loc 1 24 0 discriminator 1
  73 000c FFF7FEFF 		bl	Measure
  25:main.c        ****         CompareValues();
  74              		.loc 1 25 0 discriminator 1
  75 0010 FFF7FEFF 		bl	CompareValues
  26:main.c        ****     
  27:main.c        ****     
  28:main.c        ****         // Følgende linjer er udskrift til UART, for finpudsning til sidst
  29:main.c        ****         snprintf(value, sizeof(value), " V_Sample_avg_float = %f \r ", V_Sample_AVG_float);
  76              		.loc 1 29 0 discriminator 1
  77 0014 0D4B     		ldr	r3, .L3
ARM GAS  C:\Users\Thoma\AppData\Local\Temp\ccOGPhtk.s 			page 3


  78 0016 1B68     		ldr	r3, [r3]	@ float
  79 0018 1846     		mov	r0, r3
  80 001a FFF7FEFF 		bl	__aeabi_f2d
  81 001e 0346     		mov	r3, r0
  82 0020 0C46     		mov	r4, r1
  83 0022 CDE90034 		strd	r3, [sp]
  84 0026 0A4A     		ldr	r2, .L3+4
  85 0028 FF21     		movs	r1, #255
  86 002a 0A48     		ldr	r0, .L3+8
  87 002c FFF7FEFF 		bl	snprintf
  30:main.c        ****         UART_1_PutString(value);
  88              		.loc 1 30 0 discriminator 1
  89 0030 0848     		ldr	r0, .L3+8
  90 0032 FFF7FEFF 		bl	UART_1_PutString
  31:main.c        ****         
  32:main.c        ****         snprintf(numberOfMeasurements, sizeof(numberOfMeasurements), " Antal maalinger = %d \r ", m
  91              		.loc 1 32 0 discriminator 1
  92 0036 084B     		ldr	r3, .L3+12
  93 0038 1B68     		ldr	r3, [r3]
  94 003a 084A     		ldr	r2, .L3+16
  95 003c FF21     		movs	r1, #255
  96 003e 0848     		ldr	r0, .L3+20
  97 0040 FFF7FEFF 		bl	snprintf
  33:main.c        ****         UART_1_PutString(numberOfMeasurements);
  98              		.loc 1 33 0 discriminator 1
  99 0044 0648     		ldr	r0, .L3+20
 100 0046 FFF7FEFF 		bl	UART_1_PutString
  34:main.c        ****         // --------------------------------------------------------------
  35:main.c        ****         
  36:main.c        ****     }
 101              		.loc 1 36 0 discriminator 1
 102 004a DFE7     		b	.L2
 103              	.L4:
 104              		.align	2
 105              	.L3:
 106 004c 00000000 		.word	V_Sample_AVG_float
 107 0050 00000000 		.word	.LC0
 108 0054 00000000 		.word	value
 109 0058 00000000 		.word	measurements
 110 005c 1C000000 		.word	.LC1
 111 0060 00000000 		.word	numberOfMeasurements
 112              		.cfi_endproc
 113              	.LFE64:
 114              		.size	main, .-main
 115              		.text
 116              	.Letext0:
 117              		.file 2 "c:\\program files (x86)\\cypress\\psoc creator\\4.2\\psoc creator\\import\\gnu\\arm\\5.4.
 118              		.file 3 "c:\\program files (x86)\\cypress\\psoc creator\\4.2\\psoc creator\\import\\gnu\\arm\\5.4.
 119              		.file 4 "Generated_Source\\PSoC5/cytypes.h"
 120              		.file 5 "Generated_Source\\PSoC5/core_cm3.h"
 121              		.file 6 "functions.h"