ARM GAS  C:\Users\Thoma\AppData\Local\Temp\cckEU2zh.s 			page 1


   1              		.syntax unified
   2              		.cpu cortex-m3
   3              		.fpu softvfp
   4              		.eabi_attribute 20, 1
   5              		.eabi_attribute 21, 1
   6              		.eabi_attribute 23, 3
   7              		.eabi_attribute 24, 1
   8              		.eabi_attribute 25, 1
   9              		.eabi_attribute 26, 1
  10              		.eabi_attribute 30, 6
  11              		.eabi_attribute 34, 1
  12              		.eabi_attribute 18, 4
  13              		.thumb
  14              		.syntax unified
  15              		.file	"Mixer_1.c"
  16              		.text
  17              	.Ltext0:
  18              		.cfi_sections	.debug_frame
  19              		.global	Mixer_1_initVar
  20              		.bss
  21              		.type	Mixer_1_initVar, %object
  22              		.size	Mixer_1_initVar, 1
  23              	Mixer_1_initVar:
  24 0000 00       		.space	1
  25              		.global	__aeabi_fcmplt
  26              		.section	.text.Mixer_1_Init,"ax",%progbits
  27              		.align	2
  28              		.global	Mixer_1_Init
  29              		.thumb
  30              		.thumb_func
  31              		.type	Mixer_1_Init, %function
  32              	Mixer_1_Init:
  33              	.LFB0:
  34              		.file 1 "Generated_Source\\PSoC5\\Mixer_1.c"
   1:Generated_Source\PSoC5/Mixer_1.c **** /*******************************************************************************
   2:Generated_Source\PSoC5/Mixer_1.c **** * File Name: Mixer_1.c  
   3:Generated_Source\PSoC5/Mixer_1.c **** * Version 2.0
   4:Generated_Source\PSoC5/Mixer_1.c **** *
   5:Generated_Source\PSoC5/Mixer_1.c **** * Description:
   6:Generated_Source\PSoC5/Mixer_1.c **** *  This file provides the source code to the API for the MIXER Component.
   7:Generated_Source\PSoC5/Mixer_1.c **** *
   8:Generated_Source\PSoC5/Mixer_1.c **** * Note:
   9:Generated_Source\PSoC5/Mixer_1.c **** *
  10:Generated_Source\PSoC5/Mixer_1.c **** *******************************************************************************
  11:Generated_Source\PSoC5/Mixer_1.c **** * Copyright 2008-2012, Cypress Semiconductor Corporation.  All rights reserved.
  12:Generated_Source\PSoC5/Mixer_1.c **** * You may use this file only in accordance with the license, terms, conditions, 
  13:Generated_Source\PSoC5/Mixer_1.c **** * disclaimers, and limitations in the end user license agreement accompanying 
  14:Generated_Source\PSoC5/Mixer_1.c **** * the software package with which this file was provided.
  15:Generated_Source\PSoC5/Mixer_1.c **** *******************************************************************************/
  16:Generated_Source\PSoC5/Mixer_1.c **** 
  17:Generated_Source\PSoC5/Mixer_1.c **** #include "Mixer_1.h"
  18:Generated_Source\PSoC5/Mixer_1.c **** 
  19:Generated_Source\PSoC5/Mixer_1.c **** #if (!CY_PSOC5A)
  20:Generated_Source\PSoC5/Mixer_1.c ****     #if (CYDEV_VARIABLE_VDDA == 1u)
  21:Generated_Source\PSoC5/Mixer_1.c ****         #include "CyScBoostClk.h"
  22:Generated_Source\PSoC5/Mixer_1.c ****     #endif /* (CYDEV_VARIABLE_VDDA == 1u) */
  23:Generated_Source\PSoC5/Mixer_1.c **** #endif /* (!CY_PSOC5A) */
ARM GAS  C:\Users\Thoma\AppData\Local\Temp\cckEU2zh.s 			page 2


  24:Generated_Source\PSoC5/Mixer_1.c **** 
  25:Generated_Source\PSoC5/Mixer_1.c **** #if (Mixer_1_LO_SOURCE == Mixer_1_LO_SOURCE_INTERNAL)
  26:Generated_Source\PSoC5/Mixer_1.c ****     #include "Mixer_1_aclk.h"
  27:Generated_Source\PSoC5/Mixer_1.c **** #endif /* Mixer_1_LO_SOURCE */
  28:Generated_Source\PSoC5/Mixer_1.c **** 
  29:Generated_Source\PSoC5/Mixer_1.c **** /* Fixed configuration of SC Block only performed once */
  30:Generated_Source\PSoC5/Mixer_1.c **** uint8 Mixer_1_initVar = 0u;
  31:Generated_Source\PSoC5/Mixer_1.c **** 
  32:Generated_Source\PSoC5/Mixer_1.c **** /* Only for PSoC5A */
  33:Generated_Source\PSoC5/Mixer_1.c **** #if (CY_PSOC5A)
  34:Generated_Source\PSoC5/Mixer_1.c ****     static Mixer_1_backupStruct Mixer_1_P5backup;
  35:Generated_Source\PSoC5/Mixer_1.c **** #endif /* CY_PSOC5A */
  36:Generated_Source\PSoC5/Mixer_1.c **** 
  37:Generated_Source\PSoC5/Mixer_1.c **** 
  38:Generated_Source\PSoC5/Mixer_1.c **** /*******************************************************************************
  39:Generated_Source\PSoC5/Mixer_1.c **** * Function Name: Mixer_1_Init
  40:Generated_Source\PSoC5/Mixer_1.c **** ********************************************************************************
  41:Generated_Source\PSoC5/Mixer_1.c **** *
  42:Generated_Source\PSoC5/Mixer_1.c **** * Summary:
  43:Generated_Source\PSoC5/Mixer_1.c **** *  Initialize component's parameters to the parameters set by user in the 
  44:Generated_Source\PSoC5/Mixer_1.c **** *  customizer of the component placed onto schematic. Usually called in 
  45:Generated_Source\PSoC5/Mixer_1.c **** *  Mixer_1_Start().
  46:Generated_Source\PSoC5/Mixer_1.c **** *
  47:Generated_Source\PSoC5/Mixer_1.c **** * Parameters:  
  48:Generated_Source\PSoC5/Mixer_1.c **** *  void
  49:Generated_Source\PSoC5/Mixer_1.c **** *
  50:Generated_Source\PSoC5/Mixer_1.c **** * Return: 
  51:Generated_Source\PSoC5/Mixer_1.c **** *  void
  52:Generated_Source\PSoC5/Mixer_1.c **** *
  53:Generated_Source\PSoC5/Mixer_1.c **** *******************************************************************************/
  54:Generated_Source\PSoC5/Mixer_1.c **** void Mixer_1_Init(void) 
  55:Generated_Source\PSoC5/Mixer_1.c **** {
  35              		.loc 1 55 0
  36              		.cfi_startproc
  37              		@ args = 0, pretend = 0, frame = 8
  38              		@ frame_needed = 1, uses_anonymous_args = 0
  39 0000 80B5     		push	{r7, lr}
  40              		.cfi_def_cfa_offset 8
  41              		.cfi_offset 7, -8
  42              		.cfi_offset 14, -4
  43 0002 82B0     		sub	sp, sp, #8
  44              		.cfi_def_cfa_offset 16
  45 0004 00AF     		add	r7, sp, #0
  46              		.cfi_def_cfa_register 7
  56:Generated_Source\PSoC5/Mixer_1.c ****     float LOf = Mixer_1_LO_CLOCK_FREQ;
  47              		.loc 1 56 0
  48 0006 144B     		ldr	r3, .L7
  49 0008 7B60     		str	r3, [r7, #4]	@ float
  57:Generated_Source\PSoC5/Mixer_1.c ****     
  58:Generated_Source\PSoC5/Mixer_1.c ****     /* Configure SC Block based on selected Mixer type */
  59:Generated_Source\PSoC5/Mixer_1.c ****     /* Continuous Time (up) mixer */
  60:Generated_Source\PSoC5/Mixer_1.c ****     #if (Mixer_1_MIXER_TYPE == Mixer_1_CTMIXER) 
  61:Generated_Source\PSoC5/Mixer_1.c ****         /* SC Block mode -  - SCxx_CR0[3:1] */
  62:Generated_Source\PSoC5/Mixer_1.c ****         Mixer_1_CR0_REG = Mixer_1_MODE_CTMIXER;   
  50              		.loc 1 62 0
  51 000a 144B     		ldr	r3, .L7+4
  52 000c 0422     		movs	r2, #4
ARM GAS  C:\Users\Thoma\AppData\Local\Temp\cckEU2zh.s 			page 3


  53 000e 1A70     		strb	r2, [r3]
  63:Generated_Source\PSoC5/Mixer_1.c **** 
  64:Generated_Source\PSoC5/Mixer_1.c ****         /* SC Block CR1 */ 
  65:Generated_Source\PSoC5/Mixer_1.c ****         Mixer_1_CR1_REG = (Mixer_1_COMP_4P35PF  |
  54              		.loc 1 65 0
  55 0010 134B     		ldr	r3, .L7+8
  56 0012 0822     		movs	r2, #8
  57 0014 1A70     		strb	r2, [r3]
  66:Generated_Source\PSoC5/Mixer_1.c ****                                 Mixer_1_DIV2_DISABLE |
  67:Generated_Source\PSoC5/Mixer_1.c ****                                 Mixer_1_GAIN_0DB);                                 
  68:Generated_Source\PSoC5/Mixer_1.c **** 
  69:Generated_Source\PSoC5/Mixer_1.c ****         /* 
  70:Generated_Source\PSoC5/Mixer_1.c ****             Set SC Block resistor values based on Local Oscillator being above 
  71:Generated_Source\PSoC5/Mixer_1.c ****             or below 100kHz - controled by r20_40 (Rmix) bit for CT mode mixer
  72:Generated_Source\PSoC5/Mixer_1.c ****             and SC Block
  73:Generated_Source\PSoC5/Mixer_1.c ****         */
  74:Generated_Source\PSoC5/Mixer_1.c **** 
  75:Generated_Source\PSoC5/Mixer_1.c ****         if (LOf < Mixer_1_LO_CLOCK_FREQ_100_KHz)
  58              		.loc 1 75 0
  59 0016 1349     		ldr	r1, .L7+12
  60 0018 7868     		ldr	r0, [r7, #4]	@ float
  61 001a FFF7FEFF 		bl	__aeabi_fcmplt
  62 001e 0346     		mov	r3, r0
  63 0020 002B     		cmp	r3, #0
  64 0022 03D0     		beq	.L6
  76:Generated_Source\PSoC5/Mixer_1.c ****         {
  77:Generated_Source\PSoC5/Mixer_1.c ****             Mixer_1_CR2_REG = (Mixer_1_BIAS_LOW |
  65              		.loc 1 77 0
  66 0024 104B     		ldr	r3, .L7+16
  67 0026 0522     		movs	r2, #5
  68 0028 1A70     		strb	r2, [r3]
  69 002a 02E0     		b	.L4
  70              	.L6:
  78:Generated_Source\PSoC5/Mixer_1.c **** 										Mixer_1_REDC_01 |
  79:Generated_Source\PSoC5/Mixer_1.c **** 										Mixer_1_GNDVREF_DI |
  80:Generated_Source\PSoC5/Mixer_1.c **** 										Mixer_1_R20_40B_40K);
  81:Generated_Source\PSoC5/Mixer_1.c ****         }
  82:Generated_Source\PSoC5/Mixer_1.c ****         else
  83:Generated_Source\PSoC5/Mixer_1.c ****         {
  84:Generated_Source\PSoC5/Mixer_1.c ****             Mixer_1_CR2_REG = (Mixer_1_BIAS_LOW |
  71              		.loc 1 84 0
  72 002c 0E4B     		ldr	r3, .L7+16
  73 002e 0722     		movs	r2, #7
  74 0030 1A70     		strb	r2, [r3]
  75              	.L4:
  85:Generated_Source\PSoC5/Mixer_1.c **** 										Mixer_1_REDC_01 |
  86:Generated_Source\PSoC5/Mixer_1.c **** 										Mixer_1_GNDVREF_DI |
  87:Generated_Source\PSoC5/Mixer_1.c **** 										Mixer_1_R20_40B_20K);
  88:Generated_Source\PSoC5/Mixer_1.c ****         }
  89:Generated_Source\PSoC5/Mixer_1.c ****     #else
  90:Generated_Source\PSoC5/Mixer_1.c ****         /* Discrete Time (down) mixer */
  91:Generated_Source\PSoC5/Mixer_1.c ****         /* SC Block mode -  - SCxx_CR0[3:1] */
  92:Generated_Source\PSoC5/Mixer_1.c ****         Mixer_1_CR0_REG = Mixer_1_MODE_DTMIXER;       
  93:Generated_Source\PSoC5/Mixer_1.c **** 
  94:Generated_Source\PSoC5/Mixer_1.c ****         /* SC Block CR1 */ 
  95:Generated_Source\PSoC5/Mixer_1.c ****         Mixer_1_CR1_REG = (Mixer_1_COMP_4P35PF  |
  96:Generated_Source\PSoC5/Mixer_1.c ****                                 Mixer_1_DIV2_ENABLE |
ARM GAS  C:\Users\Thoma\AppData\Local\Temp\cckEU2zh.s 			page 4


  97:Generated_Source\PSoC5/Mixer_1.c ****                                 Mixer_1_GAIN_0DB);
  98:Generated_Source\PSoC5/Mixer_1.c **** 
  99:Generated_Source\PSoC5/Mixer_1.c ****         /* 
 100:Generated_Source\PSoC5/Mixer_1.c ****             Set SC Block resistor values based on Local Oscillator beign above 
 101:Generated_Source\PSoC5/Mixer_1.c ****             or below 100kHz - set r20_40 (input resitance) and rval (feedback) 
 102:Generated_Source\PSoC5/Mixer_1.c ****             resistor values seperately for DT mode and SC Block
 103:Generated_Source\PSoC5/Mixer_1.c ****         */
 104:Generated_Source\PSoC5/Mixer_1.c ****         if (LOf < Mixer_1_LO_CLOCK_FREQ_100_KHz)
 105:Generated_Source\PSoC5/Mixer_1.c ****         {
 106:Generated_Source\PSoC5/Mixer_1.c ****             Mixer_1_CR2_REG = (Mixer_1_BIAS_LOW |
 107:Generated_Source\PSoC5/Mixer_1.c **** 										Mixer_1_GNDVREF_DI |
 108:Generated_Source\PSoC5/Mixer_1.c **** 										Mixer_1_R20_40B_40K |
 109:Generated_Source\PSoC5/Mixer_1.c **** 										Mixer_1_RVAL_40K); 
 110:Generated_Source\PSoC5/Mixer_1.c ****         }
 111:Generated_Source\PSoC5/Mixer_1.c ****         else
 112:Generated_Source\PSoC5/Mixer_1.c ****         {
 113:Generated_Source\PSoC5/Mixer_1.c ****             Mixer_1_CR2_REG = (Mixer_1_BIAS_LOW |
 114:Generated_Source\PSoC5/Mixer_1.c **** 										Mixer_1_GNDVREF_DI |
 115:Generated_Source\PSoC5/Mixer_1.c **** 										Mixer_1_R20_40B_20K |
 116:Generated_Source\PSoC5/Mixer_1.c **** 										Mixer_1_RVAL_20K);
 117:Generated_Source\PSoC5/Mixer_1.c ****         }
 118:Generated_Source\PSoC5/Mixer_1.c ****     #endif /* end if - Mixer Type */
 119:Generated_Source\PSoC5/Mixer_1.c **** 
 120:Generated_Source\PSoC5/Mixer_1.c ****     /* Enable SC Block clocking */
 121:Generated_Source\PSoC5/Mixer_1.c ****     Mixer_1_CLK_REG |= Mixer_1_CLK_EN;
  76              		.loc 1 121 0
  77 0032 0E4A     		ldr	r2, .L7+20
  78 0034 0D4B     		ldr	r3, .L7+20
  79 0036 1B78     		ldrb	r3, [r3]
  80 0038 DBB2     		uxtb	r3, r3
  81 003a 43F00803 		orr	r3, r3, #8
  82 003e DBB2     		uxtb	r3, r3
  83 0040 1370     		strb	r3, [r2]
 122:Generated_Source\PSoC5/Mixer_1.c **** 
 123:Generated_Source\PSoC5/Mixer_1.c ****     /* Set default power */
 124:Generated_Source\PSoC5/Mixer_1.c ****     Mixer_1_SetPower(Mixer_1_INIT_POWER);
  84              		.loc 1 124 0
  85 0042 0320     		movs	r0, #3
  86 0044 FFF7FEFF 		bl	Mixer_1_SetPower
 125:Generated_Source\PSoC5/Mixer_1.c ****     
 126:Generated_Source\PSoC5/Mixer_1.c ****     /* Set 50 % Duty cycle for LO clock if LO source is internal */
 127:Generated_Source\PSoC5/Mixer_1.c ****     #if(Mixer_1_LO_SOURCE == Mixer_1_LO_SOURCE_INTERNAL)
 128:Generated_Source\PSoC5/Mixer_1.c ****         Mixer_1_aclk_SetMode(CYCLK_DUTY);
  87              		.loc 1 128 0
  88 0048 1020     		movs	r0, #16
  89 004a FFF7FEFF 		bl	Mixer_1_aclk_SetModeRegister
 129:Generated_Source\PSoC5/Mixer_1.c ****     #endif /* Mixer_1_LO_SOURCE == Mixer_1_LO_SOURCE_INTERNAL */
 130:Generated_Source\PSoC5/Mixer_1.c **** 
 131:Generated_Source\PSoC5/Mixer_1.c **** }
  90              		.loc 1 131 0
  91 004e 00BF     		nop
  92 0050 0837     		adds	r7, r7, #8
  93              		.cfi_def_cfa_offset 8
  94 0052 BD46     		mov	sp, r7
  95              		.cfi_def_cfa_register 13
  96              		@ sp needed
  97 0054 80BD     		pop	{r7, pc}
ARM GAS  C:\Users\Thoma\AppData\Local\Temp\cckEU2zh.s 			page 5


  98              	.L8:
  99 0056 00BF     		.align	2
 100              	.L7:
 101 0058 00003041 		.word	1093664768
 102 005c 08580040 		.word	1073764360
 103 0060 09580040 		.word	1073764361
 104 0064 0000C842 		.word	1120403456
 105 0068 0A580040 		.word	1073764362
 106 006c 2B5A0040 		.word	1073764907
 107              		.cfi_endproc
 108              	.LFE0:
 109              		.size	Mixer_1_Init, .-Mixer_1_Init
 110              		.section	.text.Mixer_1_Enable,"ax",%progbits
 111              		.align	2
 112              		.global	Mixer_1_Enable
 113              		.thumb
 114              		.thumb_func
 115              		.type	Mixer_1_Enable, %function
 116              	Mixer_1_Enable:
 117              	.LFB1:
 132:Generated_Source\PSoC5/Mixer_1.c **** 
 133:Generated_Source\PSoC5/Mixer_1.c **** 
 134:Generated_Source\PSoC5/Mixer_1.c **** /*******************************************************************************
 135:Generated_Source\PSoC5/Mixer_1.c **** * Function Name: Mixer_1_Enable
 136:Generated_Source\PSoC5/Mixer_1.c **** ********************************************************************************
 137:Generated_Source\PSoC5/Mixer_1.c **** *  
 138:Generated_Source\PSoC5/Mixer_1.c **** * Summary: 
 139:Generated_Source\PSoC5/Mixer_1.c **** *  Enables the Mixer block operation
 140:Generated_Source\PSoC5/Mixer_1.c **** *
 141:Generated_Source\PSoC5/Mixer_1.c **** * Parameters:  
 142:Generated_Source\PSoC5/Mixer_1.c **** *  void
 143:Generated_Source\PSoC5/Mixer_1.c **** *
 144:Generated_Source\PSoC5/Mixer_1.c **** * Return: 
 145:Generated_Source\PSoC5/Mixer_1.c **** *  void
 146:Generated_Source\PSoC5/Mixer_1.c **** *
 147:Generated_Source\PSoC5/Mixer_1.c **** *******************************************************************************/
 148:Generated_Source\PSoC5/Mixer_1.c **** void Mixer_1_Enable(void) 
 149:Generated_Source\PSoC5/Mixer_1.c **** {
 118              		.loc 1 149 0
 119              		.cfi_startproc
 120              		@ args = 0, pretend = 0, frame = 0
 121              		@ frame_needed = 1, uses_anonymous_args = 0
 122 0000 80B5     		push	{r7, lr}
 123              		.cfi_def_cfa_offset 8
 124              		.cfi_offset 7, -8
 125              		.cfi_offset 14, -4
 126 0002 00AF     		add	r7, sp, #0
 127              		.cfi_def_cfa_register 7
 150:Generated_Source\PSoC5/Mixer_1.c ****     /* This is to restore the value of register CR1 and CR2 which is saved 
 151:Generated_Source\PSoC5/Mixer_1.c ****       in prior to the modifications in stop() API */
 152:Generated_Source\PSoC5/Mixer_1.c ****     #if (CY_PSOC5A)
 153:Generated_Source\PSoC5/Mixer_1.c ****         if(Mixer_1_P5backup.enableState == 1u)
 154:Generated_Source\PSoC5/Mixer_1.c ****         {
 155:Generated_Source\PSoC5/Mixer_1.c ****             Mixer_1_CR1_REG = Mixer_1_P5backup.scCR1Reg;
 156:Generated_Source\PSoC5/Mixer_1.c ****             Mixer_1_CR2_REG = Mixer_1_P5backup.scCR2Reg;
 157:Generated_Source\PSoC5/Mixer_1.c ****             Mixer_1_P5backup.enableState = 0u;
 158:Generated_Source\PSoC5/Mixer_1.c ****         }
ARM GAS  C:\Users\Thoma\AppData\Local\Temp\cckEU2zh.s 			page 6


 159:Generated_Source\PSoC5/Mixer_1.c ****     #endif /* CY_PSOC5A */
 160:Generated_Source\PSoC5/Mixer_1.c ****     
 161:Generated_Source\PSoC5/Mixer_1.c ****     /* Enable power to SC block in active mode */
 162:Generated_Source\PSoC5/Mixer_1.c ****     Mixer_1_PM_ACT_CFG_REG |= Mixer_1_ACT_PWR_EN;
 128              		.loc 1 162 0
 129 0004 154A     		ldr	r2, .L10
 130 0006 154B     		ldr	r3, .L10
 131 0008 1B78     		ldrb	r3, [r3]
 132 000a DBB2     		uxtb	r3, r3
 133 000c 43F00403 		orr	r3, r3, #4
 134 0010 DBB2     		uxtb	r3, r3
 135 0012 1370     		strb	r3, [r2]
 163:Generated_Source\PSoC5/Mixer_1.c **** 
 164:Generated_Source\PSoC5/Mixer_1.c ****     /* Enable power to SC block in Alternative active mode */
 165:Generated_Source\PSoC5/Mixer_1.c ****     Mixer_1_PM_STBY_CFG_REG |= Mixer_1_STBY_PWR_EN;
 136              		.loc 1 165 0
 137 0014 124A     		ldr	r2, .L10+4
 138 0016 124B     		ldr	r3, .L10+4
 139 0018 1B78     		ldrb	r3, [r3]
 140 001a DBB2     		uxtb	r3, r3
 141 001c 43F00403 		orr	r3, r3, #4
 142 0020 DBB2     		uxtb	r3, r3
 143 0022 1370     		strb	r3, [r2]
 166:Generated_Source\PSoC5/Mixer_1.c ****     
 167:Generated_Source\PSoC5/Mixer_1.c ****     /* Enable LO_Internal clock if LO source is choosen as internal */
 168:Generated_Source\PSoC5/Mixer_1.c ****     #if(Mixer_1_LO_SOURCE == Mixer_1_LO_SOURCE_INTERNAL)
 169:Generated_Source\PSoC5/Mixer_1.c ****         /* Enable power to the LO clock */
 170:Generated_Source\PSoC5/Mixer_1.c ****         Mixer_1_PWRMGR_ACLK_REG |= Mixer_1_ACT_PWR_ACLK_EN;        
 144              		.loc 1 170 0
 145 0024 0F4A     		ldr	r2, .L10+8
 146 0026 0F4B     		ldr	r3, .L10+8
 147 0028 1B78     		ldrb	r3, [r3]
 148 002a DBB2     		uxtb	r3, r3
 149 002c 43F00203 		orr	r3, r3, #2
 150 0030 DBB2     		uxtb	r3, r3
 151 0032 1370     		strb	r3, [r2]
 171:Generated_Source\PSoC5/Mixer_1.c ****         Mixer_1_STBY_PWRMGR_ACLK_REG |= Mixer_1_STBY_PWR_ACLK_EN;
 152              		.loc 1 171 0
 153 0034 0C4A     		ldr	r2, .L10+12
 154 0036 0C4B     		ldr	r3, .L10+12
 155 0038 1B78     		ldrb	r3, [r3]
 156 003a DBB2     		uxtb	r3, r3
 157 003c 43F00203 		orr	r3, r3, #2
 158 0040 DBB2     		uxtb	r3, r3
 159 0042 1370     		strb	r3, [r2]
 172:Generated_Source\PSoC5/Mixer_1.c ****         /* Enable the clock */
 173:Generated_Source\PSoC5/Mixer_1.c ****         Mixer_1_aclk_Enable();        
 160              		.loc 1 173 0
 161 0044 FFF7FEFF 		bl	Mixer_1_aclk_Start
 174:Generated_Source\PSoC5/Mixer_1.c ****     #endif /* Mixer_1_LO_SOURCE == Mixer_1_LO_SOURCE_INTERNAL */
 175:Generated_Source\PSoC5/Mixer_1.c **** 
 176:Generated_Source\PSoC5/Mixer_1.c ****     Mixer_1_PUMP_CR1_REG |= Mixer_1_PUMP_CR1_SC_CLKSEL;
 162              		.loc 1 176 0
 163 0048 084A     		ldr	r2, .L10+16
 164 004a 084B     		ldr	r3, .L10+16
 165 004c 1B78     		ldrb	r3, [r3]
 166 004e DBB2     		uxtb	r3, r3
ARM GAS  C:\Users\Thoma\AppData\Local\Temp\cckEU2zh.s 			page 7


 167 0050 63F07F03 		orn	r3, r3, #127
 168 0054 DBB2     		uxtb	r3, r3
 169 0056 1370     		strb	r3, [r2]
 177:Generated_Source\PSoC5/Mixer_1.c ****     
 178:Generated_Source\PSoC5/Mixer_1.c ****     #if (!CY_PSOC5A)
 179:Generated_Source\PSoC5/Mixer_1.c ****         #if (CYDEV_VARIABLE_VDDA == 1u)
 180:Generated_Source\PSoC5/Mixer_1.c ****             if(CyScPumpEnabled == 1u)
 181:Generated_Source\PSoC5/Mixer_1.c ****             {
 182:Generated_Source\PSoC5/Mixer_1.c ****                 Mixer_1_BSTCLK_REG &= (uint8)(~Mixer_1_BST_CLK_INDEX_MASK);
 183:Generated_Source\PSoC5/Mixer_1.c ****                 Mixer_1_BSTCLK_REG |= Mixer_1_BST_CLK_EN | CyScBoostClk__INDEX;
 184:Generated_Source\PSoC5/Mixer_1.c ****                 Mixer_1_SC_MISC_REG |= Mixer_1_PUMP_FORCE;
 185:Generated_Source\PSoC5/Mixer_1.c ****                 CyScBoostClk_Start();
 186:Generated_Source\PSoC5/Mixer_1.c ****             }
 187:Generated_Source\PSoC5/Mixer_1.c ****             else
 188:Generated_Source\PSoC5/Mixer_1.c ****             {
 189:Generated_Source\PSoC5/Mixer_1.c ****                 Mixer_1_BSTCLK_REG &= (uint8)(~Mixer_1_BST_CLK_EN);
 190:Generated_Source\PSoC5/Mixer_1.c ****                 Mixer_1_SC_MISC_REG &= (uint8)(~Mixer_1_PUMP_FORCE);
 191:Generated_Source\PSoC5/Mixer_1.c ****             }
 192:Generated_Source\PSoC5/Mixer_1.c ****         #endif /* (CYDEV_VARIABLE_VDDA == 1u) */
 193:Generated_Source\PSoC5/Mixer_1.c ****     #endif /* (!CY_PSOC5A) */
 194:Generated_Source\PSoC5/Mixer_1.c **** }
 170              		.loc 1 194 0
 171 0058 00BF     		nop
 172 005a 80BD     		pop	{r7, pc}
 173              	.L11:
 174              		.align	2
 175              	.L10:
 176 005c A9430040 		.word	1073759145
 177 0060 B9430040 		.word	1073759161
 178 0064 A1430040 		.word	1073759137
 179 0068 B1430040 		.word	1073759153
 180 006c 77580040 		.word	1073764471
 181              		.cfi_endproc
 182              	.LFE1:
 183              		.size	Mixer_1_Enable, .-Mixer_1_Enable
 184              		.section	.text.Mixer_1_Start,"ax",%progbits
 185              		.align	2
 186              		.global	Mixer_1_Start
 187              		.thumb
 188              		.thumb_func
 189              		.type	Mixer_1_Start, %function
 190              	Mixer_1_Start:
 191              	.LFB2:
 195:Generated_Source\PSoC5/Mixer_1.c **** 
 196:Generated_Source\PSoC5/Mixer_1.c **** 
 197:Generated_Source\PSoC5/Mixer_1.c **** /*******************************************************************************
 198:Generated_Source\PSoC5/Mixer_1.c **** * Function Name: Mixer_1_Start
 199:Generated_Source\PSoC5/Mixer_1.c **** ********************************************************************************
 200:Generated_Source\PSoC5/Mixer_1.c **** *
 201:Generated_Source\PSoC5/Mixer_1.c **** * Summary:
 202:Generated_Source\PSoC5/Mixer_1.c **** *  The start function initializes the SC block control registers based on the
 203:Generated_Source\PSoC5/Mixer_1.c **** *  Mixer type selected and and enables power to the SC block
 204:Generated_Source\PSoC5/Mixer_1.c **** *
 205:Generated_Source\PSoC5/Mixer_1.c **** * Parameters:  
 206:Generated_Source\PSoC5/Mixer_1.c **** *  void
 207:Generated_Source\PSoC5/Mixer_1.c **** *
 208:Generated_Source\PSoC5/Mixer_1.c **** * Return: 
ARM GAS  C:\Users\Thoma\AppData\Local\Temp\cckEU2zh.s 			page 8


 209:Generated_Source\PSoC5/Mixer_1.c **** *  void 
 210:Generated_Source\PSoC5/Mixer_1.c **** *
 211:Generated_Source\PSoC5/Mixer_1.c **** * Global variables:
 212:Generated_Source\PSoC5/Mixer_1.c **** *  Mixer_1_initVar:  Used to check the initial configuration,
 213:Generated_Source\PSoC5/Mixer_1.c **** *  modified when this function is called for the first time.
 214:Generated_Source\PSoC5/Mixer_1.c **** *
 215:Generated_Source\PSoC5/Mixer_1.c **** * Theory: 
 216:Generated_Source\PSoC5/Mixer_1.c **** *  Full initialization of the SC Block configuration registers is only perfomed 
 217:Generated_Source\PSoC5/Mixer_1.c **** *  the first time the routine executes - global variable 
 218:Generated_Source\PSoC5/Mixer_1.c **** *  Mixer_1_initVar is used indicate that the static configuration has 
 219:Generated_Source\PSoC5/Mixer_1.c **** *  been completed.
 220:Generated_Source\PSoC5/Mixer_1.c **** *
 221:Generated_Source\PSoC5/Mixer_1.c **** *******************************************************************************/
 222:Generated_Source\PSoC5/Mixer_1.c **** void Mixer_1_Start(void) 
 223:Generated_Source\PSoC5/Mixer_1.c **** {
 192              		.loc 1 223 0
 193              		.cfi_startproc
 194              		@ args = 0, pretend = 0, frame = 0
 195              		@ frame_needed = 1, uses_anonymous_args = 0
 196 0000 80B5     		push	{r7, lr}
 197              		.cfi_def_cfa_offset 8
 198              		.cfi_offset 7, -8
 199              		.cfi_offset 14, -4
 200 0002 00AF     		add	r7, sp, #0
 201              		.cfi_def_cfa_register 7
 224:Generated_Source\PSoC5/Mixer_1.c ****     /* If not Initialized then initialize all required hardware and software */
 225:Generated_Source\PSoC5/Mixer_1.c ****     if(Mixer_1_initVar == 0u)
 202              		.loc 1 225 0
 203 0004 064B     		ldr	r3, .L14
 204 0006 1B78     		ldrb	r3, [r3]	@ zero_extendqisi2
 205 0008 002B     		cmp	r3, #0
 206 000a 04D1     		bne	.L13
 226:Generated_Source\PSoC5/Mixer_1.c ****     {
 227:Generated_Source\PSoC5/Mixer_1.c ****         Mixer_1_Init();
 207              		.loc 1 227 0
 208 000c FFF7FEFF 		bl	Mixer_1_Init
 228:Generated_Source\PSoC5/Mixer_1.c ****         Mixer_1_initVar = 1u;
 209              		.loc 1 228 0
 210 0010 034B     		ldr	r3, .L14
 211 0012 0122     		movs	r2, #1
 212 0014 1A70     		strb	r2, [r3]
 213              	.L13:
 229:Generated_Source\PSoC5/Mixer_1.c ****     }
 230:Generated_Source\PSoC5/Mixer_1.c ****     /* Enable the power to the block */
 231:Generated_Source\PSoC5/Mixer_1.c ****     Mixer_1_Enable();
 214              		.loc 1 231 0
 215 0016 FFF7FEFF 		bl	Mixer_1_Enable
 232:Generated_Source\PSoC5/Mixer_1.c ****     
 233:Generated_Source\PSoC5/Mixer_1.c **** }
 216              		.loc 1 233 0
 217 001a 00BF     		nop
 218 001c 80BD     		pop	{r7, pc}
 219              	.L15:
 220 001e 00BF     		.align	2
 221              	.L14:
 222 0020 00000000 		.word	Mixer_1_initVar
 223              		.cfi_endproc
ARM GAS  C:\Users\Thoma\AppData\Local\Temp\cckEU2zh.s 			page 9


 224              	.LFE2:
 225              		.size	Mixer_1_Start, .-Mixer_1_Start
 226              		.section	.text.Mixer_1_Stop,"ax",%progbits
 227              		.align	2
 228              		.global	Mixer_1_Stop
 229              		.thumb
 230              		.thumb_func
 231              		.type	Mixer_1_Stop, %function
 232              	Mixer_1_Stop:
 233              	.LFB3:
 234:Generated_Source\PSoC5/Mixer_1.c **** 
 235:Generated_Source\PSoC5/Mixer_1.c **** 
 236:Generated_Source\PSoC5/Mixer_1.c **** /*******************************************************************************
 237:Generated_Source\PSoC5/Mixer_1.c **** * Function Name: Mixer_1_Stop
 238:Generated_Source\PSoC5/Mixer_1.c **** ********************************************************************************
 239:Generated_Source\PSoC5/Mixer_1.c **** *
 240:Generated_Source\PSoC5/Mixer_1.c **** * Summary:
 241:Generated_Source\PSoC5/Mixer_1.c **** *  Disables power to SC block.
 242:Generated_Source\PSoC5/Mixer_1.c **** *
 243:Generated_Source\PSoC5/Mixer_1.c **** * Parameters:  
 244:Generated_Source\PSoC5/Mixer_1.c **** *  void 
 245:Generated_Source\PSoC5/Mixer_1.c **** *
 246:Generated_Source\PSoC5/Mixer_1.c **** * Return: 
 247:Generated_Source\PSoC5/Mixer_1.c **** *  void 
 248:Generated_Source\PSoC5/Mixer_1.c **** *
 249:Generated_Source\PSoC5/Mixer_1.c **** *******************************************************************************/
 250:Generated_Source\PSoC5/Mixer_1.c **** void Mixer_1_Stop(void) 
 251:Generated_Source\PSoC5/Mixer_1.c **** {       
 234              		.loc 1 251 0
 235              		.cfi_startproc
 236              		@ args = 0, pretend = 0, frame = 0
 237              		@ frame_needed = 1, uses_anonymous_args = 0
 238 0000 80B5     		push	{r7, lr}
 239              		.cfi_def_cfa_offset 8
 240              		.cfi_offset 7, -8
 241              		.cfi_offset 14, -4
 242 0002 00AF     		add	r7, sp, #0
 243              		.cfi_def_cfa_register 7
 252:Generated_Source\PSoC5/Mixer_1.c ****     /* Disble power to the Amp in Active mode template */
 253:Generated_Source\PSoC5/Mixer_1.c ****     Mixer_1_PM_ACT_CFG_REG &= (uint8)(~Mixer_1_ACT_PWR_EN);
 244              		.loc 1 253 0
 245 0004 114A     		ldr	r2, .L17
 246 0006 114B     		ldr	r3, .L17
 247 0008 1B78     		ldrb	r3, [r3]
 248 000a DBB2     		uxtb	r3, r3
 249 000c 23F00403 		bic	r3, r3, #4
 250 0010 DBB2     		uxtb	r3, r3
 251 0012 1370     		strb	r3, [r2]
 254:Generated_Source\PSoC5/Mixer_1.c **** 
 255:Generated_Source\PSoC5/Mixer_1.c ****     /* Disble power to the Amp in Alternative Active mode template */
 256:Generated_Source\PSoC5/Mixer_1.c ****     Mixer_1_PM_STBY_CFG_REG &= (uint8)(~Mixer_1_STBY_PWR_EN);
 252              		.loc 1 256 0
 253 0014 0E4A     		ldr	r2, .L17+4
 254 0016 0E4B     		ldr	r3, .L17+4
 255 0018 1B78     		ldrb	r3, [r3]
 256 001a DBB2     		uxtb	r3, r3
 257 001c 23F00403 		bic	r3, r3, #4
ARM GAS  C:\Users\Thoma\AppData\Local\Temp\cckEU2zh.s 			page 10


 258 0020 DBB2     		uxtb	r3, r3
 259 0022 1370     		strb	r3, [r2]
 257:Generated_Source\PSoC5/Mixer_1.c ****     
 258:Generated_Source\PSoC5/Mixer_1.c ****     #if (!CY_PSOC5A)
 259:Generated_Source\PSoC5/Mixer_1.c ****         #if (CYDEV_VARIABLE_VDDA == 1u)
 260:Generated_Source\PSoC5/Mixer_1.c ****             Mixer_1_BSTCLK_REG &= (uint8)(~Mixer_1_BST_CLK_EN);
 261:Generated_Source\PSoC5/Mixer_1.c ****             /* Disable pumps only if there aren't any SC block in use */
 262:Generated_Source\PSoC5/Mixer_1.c ****             if ((Mixer_1_PM_ACT_CFG_REG & Mixer_1_PM_ACT_CFG_MASK) == 0u)
 263:Generated_Source\PSoC5/Mixer_1.c ****             {
 264:Generated_Source\PSoC5/Mixer_1.c ****                 Mixer_1_SC_MISC_REG &= (uint8)(~Mixer_1_PUMP_FORCE);
 265:Generated_Source\PSoC5/Mixer_1.c ****                 Mixer_1_PUMP_CR1_REG &= (uint8)(~Mixer_1_PUMP_CR1_SC_CLKSEL);
 266:Generated_Source\PSoC5/Mixer_1.c ****                 CyScBoostClk_Stop();
 267:Generated_Source\PSoC5/Mixer_1.c ****             }
 268:Generated_Source\PSoC5/Mixer_1.c ****         #endif /* CYDEV_VARIABLE_VDDA == 1u */
 269:Generated_Source\PSoC5/Mixer_1.c ****     #endif /* (CY_PSOC3 || CY_PSOC5LP) */
 270:Generated_Source\PSoC5/Mixer_1.c ****     
 271:Generated_Source\PSoC5/Mixer_1.c ****     /* This sets Sample and hold in zero current mode and output routes are valid */
 272:Generated_Source\PSoC5/Mixer_1.c ****     #if (CY_PSOC5A)
 273:Generated_Source\PSoC5/Mixer_1.c ****         Mixer_1_P5backup.scCR1Reg = Mixer_1_CR1_REG;
 274:Generated_Source\PSoC5/Mixer_1.c ****         Mixer_1_P5backup.scCR2Reg = Mixer_1_CR2_REG;
 275:Generated_Source\PSoC5/Mixer_1.c ****         Mixer_1_CR1_REG = 0x00u;
 276:Generated_Source\PSoC5/Mixer_1.c ****         Mixer_1_CR2_REG = 0x00u;
 277:Generated_Source\PSoC5/Mixer_1.c ****         Mixer_1_P5backup.enableState = 1u;
 278:Generated_Source\PSoC5/Mixer_1.c ****     #endif /* CY_PSOC5A */  
 279:Generated_Source\PSoC5/Mixer_1.c ****     
 280:Generated_Source\PSoC5/Mixer_1.c ****     /* Disable aclk */
 281:Generated_Source\PSoC5/Mixer_1.c ****     #if(Mixer_1_LO_SOURCE == Mixer_1_LO_SOURCE_INTERNAL)
 282:Generated_Source\PSoC5/Mixer_1.c ****         /* Disable power to clock */
 283:Generated_Source\PSoC5/Mixer_1.c ****         Mixer_1_PWRMGR_ACLK_REG &= (uint8)(~Mixer_1_ACT_PWR_ACLK_EN);
 260              		.loc 1 283 0
 261 0024 0B4A     		ldr	r2, .L17+8
 262 0026 0B4B     		ldr	r3, .L17+8
 263 0028 1B78     		ldrb	r3, [r3]
 264 002a DBB2     		uxtb	r3, r3
 265 002c 23F00203 		bic	r3, r3, #2
 266 0030 DBB2     		uxtb	r3, r3
 267 0032 1370     		strb	r3, [r2]
 284:Generated_Source\PSoC5/Mixer_1.c ****         Mixer_1_STBY_PWRMGR_ACLK_REG &= (uint8)(~Mixer_1_STBY_PWR_ACLK_EN);
 268              		.loc 1 284 0
 269 0034 084A     		ldr	r2, .L17+12
 270 0036 084B     		ldr	r3, .L17+12
 271 0038 1B78     		ldrb	r3, [r3]
 272 003a DBB2     		uxtb	r3, r3
 273 003c 23F00203 		bic	r3, r3, #2
 274 0040 DBB2     		uxtb	r3, r3
 275 0042 1370     		strb	r3, [r2]
 285:Generated_Source\PSoC5/Mixer_1.c ****         /* Disable the clock */
 286:Generated_Source\PSoC5/Mixer_1.c ****         Mixer_1_aclk_Disable();
 276              		.loc 1 286 0
 277 0044 FFF7FEFF 		bl	Mixer_1_aclk_Stop
 287:Generated_Source\PSoC5/Mixer_1.c ****     #endif /* Mixer_1_LO_SOURCE == Mixer_1_LO_SOURCE_INTERNAL */
 288:Generated_Source\PSoC5/Mixer_1.c **** }
 278              		.loc 1 288 0
 279 0048 00BF     		nop
 280 004a 80BD     		pop	{r7, pc}
 281              	.L18:
 282              		.align	2
ARM GAS  C:\Users\Thoma\AppData\Local\Temp\cckEU2zh.s 			page 11


 283              	.L17:
 284 004c A9430040 		.word	1073759145
 285 0050 B9430040 		.word	1073759161
 286 0054 A1430040 		.word	1073759137
 287 0058 B1430040 		.word	1073759153
 288              		.cfi_endproc
 289              	.LFE3:
 290              		.size	Mixer_1_Stop, .-Mixer_1_Stop
 291              		.section	.text.Mixer_1_SetPower,"ax",%progbits
 292              		.align	2
 293              		.global	Mixer_1_SetPower
 294              		.thumb
 295              		.thumb_func
 296              		.type	Mixer_1_SetPower, %function
 297              	Mixer_1_SetPower:
 298              	.LFB4:
 289:Generated_Source\PSoC5/Mixer_1.c **** 
 290:Generated_Source\PSoC5/Mixer_1.c **** 
 291:Generated_Source\PSoC5/Mixer_1.c **** /*******************************************************************************
 292:Generated_Source\PSoC5/Mixer_1.c **** * Function Name: Mixer_1_SetPower
 293:Generated_Source\PSoC5/Mixer_1.c **** ********************************************************************************
 294:Generated_Source\PSoC5/Mixer_1.c **** *
 295:Generated_Source\PSoC5/Mixer_1.c **** * Summary:
 296:Generated_Source\PSoC5/Mixer_1.c **** *  Set the drive power of the MIXER
 297:Generated_Source\PSoC5/Mixer_1.c **** *
 298:Generated_Source\PSoC5/Mixer_1.c **** * Parameters:  
 299:Generated_Source\PSoC5/Mixer_1.c **** *  power:  Sets power level between (0) and (3) high power
 300:Generated_Source\PSoC5/Mixer_1.c **** *
 301:Generated_Source\PSoC5/Mixer_1.c **** * Return: 
 302:Generated_Source\PSoC5/Mixer_1.c **** *  void 
 303:Generated_Source\PSoC5/Mixer_1.c **** *
 304:Generated_Source\PSoC5/Mixer_1.c **** *******************************************************************************/
 305:Generated_Source\PSoC5/Mixer_1.c **** void Mixer_1_SetPower(uint8 power) 
 306:Generated_Source\PSoC5/Mixer_1.c **** {
 299              		.loc 1 306 0
 300              		.cfi_startproc
 301              		@ args = 0, pretend = 0, frame = 16
 302              		@ frame_needed = 1, uses_anonymous_args = 0
 303              		@ link register save eliminated.
 304 0000 80B4     		push	{r7}
 305              		.cfi_def_cfa_offset 4
 306              		.cfi_offset 7, -4
 307 0002 85B0     		sub	sp, sp, #20
 308              		.cfi_def_cfa_offset 24
 309 0004 00AF     		add	r7, sp, #0
 310              		.cfi_def_cfa_register 7
 311 0006 0346     		mov	r3, r0
 312 0008 FB71     		strb	r3, [r7, #7]
 307:Generated_Source\PSoC5/Mixer_1.c ****     uint8 tmpCR;
 308:Generated_Source\PSoC5/Mixer_1.c **** 
 309:Generated_Source\PSoC5/Mixer_1.c ****     /* Sets drive bits in SC Block Control Register 1:  SCxx_CR[1:0] */    
 310:Generated_Source\PSoC5/Mixer_1.c ****     tmpCR = Mixer_1_CR1_REG & (uint8)(~Mixer_1_DRIVE_MASK);
 313              		.loc 1 310 0
 314 000a 0A4B     		ldr	r3, .L20
 315 000c 1B78     		ldrb	r3, [r3]
 316 000e DBB2     		uxtb	r3, r3
 317 0010 23F00303 		bic	r3, r3, #3
ARM GAS  C:\Users\Thoma\AppData\Local\Temp\cckEU2zh.s 			page 12


 318 0014 FB73     		strb	r3, [r7, #15]
 311:Generated_Source\PSoC5/Mixer_1.c ****     tmpCR |= (power & Mixer_1_DRIVE_MASK);
 319              		.loc 1 311 0
 320 0016 FB79     		ldrb	r3, [r7, #7]
 321 0018 03F00303 		and	r3, r3, #3
 322 001c DAB2     		uxtb	r2, r3
 323 001e FB7B     		ldrb	r3, [r7, #15]
 324 0020 1343     		orrs	r3, r3, r2
 325 0022 FB73     		strb	r3, [r7, #15]
 312:Generated_Source\PSoC5/Mixer_1.c ****     Mixer_1_CR1_REG = tmpCR;  
 326              		.loc 1 312 0
 327 0024 034A     		ldr	r2, .L20
 328 0026 FB7B     		ldrb	r3, [r7, #15]
 329 0028 1370     		strb	r3, [r2]
 313:Generated_Source\PSoC5/Mixer_1.c **** }
 330              		.loc 1 313 0
 331 002a 00BF     		nop
 332 002c 1437     		adds	r7, r7, #20
 333              		.cfi_def_cfa_offset 4
 334 002e BD46     		mov	sp, r7
 335              		.cfi_def_cfa_register 13
 336              		@ sp needed
 337 0030 80BC     		pop	{r7}
 338              		.cfi_restore 7
 339              		.cfi_def_cfa_offset 0
 340 0032 7047     		bx	lr
 341              	.L21:
 342              		.align	2
 343              	.L20:
 344 0034 09580040 		.word	1073764361
 345              		.cfi_endproc
 346              	.LFE4:
 347              		.size	Mixer_1_SetPower, .-Mixer_1_SetPower
 348              		.text
 349              	.Letext0:
 350              		.file 2 "Generated_Source\\PSoC5\\cytypes.h"