ARM GAS  C:\Users\LUCASI~1\AppData\Local\Temp\ccAIbrbH.s 			page 1


   1              		.syntax unified
   2              		.cpu cortex-m3
   3              		.fpu softvfp
   4              		.eabi_attribute 20, 1
   5              		.eabi_attribute 21, 1
   6              		.eabi_attribute 23, 3
   7              		.eabi_attribute 24, 1
   8              		.eabi_attribute 25, 1
   9              		.eabi_attribute 26, 1
  10              		.eabi_attribute 30, 1
  11              		.eabi_attribute 34, 1
  12              		.eabi_attribute 18, 4
  13              		.thumb
  14              		.syntax unified
  15              		.file	"LedHandler.c"
  16              		.text
  17              	.Ltext0:
  18              		.cfi_sections	.debug_frame
  19              		.section	.text.TurnOff,"ax",%progbits
  20              		.align	2
  21              		.global	TurnOff
  22              		.thumb
  23              		.thumb_func
  24              		.type	TurnOff, %function
  25              	TurnOff:
  26              	.LFB64:
  27              		.file 1 "LedHandler.c"
   1:LedHandler.c  **** #include "LedHandler.h"
   2:LedHandler.c  **** 
   3:LedHandler.c  **** void ledHandler(int state)
   4:LedHandler.c  **** {
   5:LedHandler.c  ****     switch (state)
   6:LedHandler.c  ****     {
   7:LedHandler.c  ****         case 0:
   8:LedHandler.c  ****             StartSequence();
   9:LedHandler.c  ****             break;
  10:LedHandler.c  ****         case 1:
  11:LedHandler.c  ****             StopSequence();
  12:LedHandler.c  ****             break;
  13:LedHandler.c  ****         case 2:
  14:LedHandler.c  ****             CupHitSequence();
  15:LedHandler.c  ****             break;
  16:LedHandler.c  ****         case 3:
  17:LedHandler.c  ****             WeightOffSequence();
  18:LedHandler.c  ****             break;
  19:LedHandler.c  ****         case 4:
  20:LedHandler.c  ****             WeightOnSequence();
  21:LedHandler.c  ****             break;
  22:LedHandler.c  ****         default:
  23:LedHandler.c  ****             break;
  24:LedHandler.c  ****         
  25:LedHandler.c  ****     }
  26:LedHandler.c  **** }
  27:LedHandler.c  **** void TurnOff(int startPos, int amount)
  28:LedHandler.c  **** { 
  28              		.loc 1 28 0
  29              		.cfi_startproc
ARM GAS  C:\Users\LUCASI~1\AppData\Local\Temp\ccAIbrbH.s 			page 2


  30              		@ args = 0, pretend = 0, frame = 0
  31              		@ frame_needed = 0, uses_anonymous_args = 0
  32              		@ link register save eliminated.
  33              	.LVL0:
  34 0000 70B4     		push	{r4, r5, r6}
  35              		.cfi_def_cfa_offset 12
  36              		.cfi_offset 4, -12
  37              		.cfi_offset 5, -8
  38              		.cfi_offset 6, -4
  39              	.LVL1:
  40              	.LBB2:
  29:LedHandler.c  ****     for(int i = startPos; i < startPos + amount; i++)
  41              		.loc 1 29 0
  42 0002 0246     		mov	r2, r0
  43 0004 09E0     		b	.L2
  44              	.LVL2:
  45              	.L3:
  30:LedHandler.c  ****     {
  31:LedHandler.c  ****         pPixelArray[GREEN + i * 3] = (unsigned int)0.0;
  46              		.loc 1 31 0 discriminator 3
  47 0006 02EB4203 		add	r3, r2, r2, lsl #1
  48 000a 064C     		ldr	r4, .L5
  49 000c 0025     		movs	r5, #0
  50 000e E554     		strb	r5, [r4, r3]
  32:LedHandler.c  ****         pPixelArray[BLUE + i * 3] = (unsigned int)0.0;
  51              		.loc 1 32 0 discriminator 3
  52 0010 9E1C     		adds	r6, r3, #2
  53 0012 A555     		strb	r5, [r4, r6]
  33:LedHandler.c  ****         pPixelArray[RED + i * 3] = (unsigned int)0.0;
  54              		.loc 1 33 0 discriminator 3
  55 0014 0133     		adds	r3, r3, #1
  56 0016 E554     		strb	r5, [r4, r3]
  29:LedHandler.c  ****     {
  57              		.loc 1 29 0 discriminator 3
  58 0018 0132     		adds	r2, r2, #1
  59              	.LVL3:
  60              	.L2:
  29:LedHandler.c  ****     {
  61              		.loc 1 29 0 is_stmt 0 discriminator 1
  62 001a 4318     		adds	r3, r0, r1
  63 001c 9A42     		cmp	r2, r3
  64 001e F2DB     		blt	.L3
  65              	.LBE2:
  34:LedHandler.c  ****     }
  35:LedHandler.c  **** }
  66              		.loc 1 35 0 is_stmt 1
  67 0020 70BC     		pop	{r4, r5, r6}
  68              		.cfi_restore 6
  69              		.cfi_restore 5
  70              		.cfi_restore 4
  71              		.cfi_def_cfa_offset 0
  72 0022 7047     		bx	lr
  73              	.L6:
  74              		.align	2
  75              	.L5:
  76 0024 00000000 		.word	pPixelArray
  77              		.cfi_endproc
ARM GAS  C:\Users\LUCASI~1\AppData\Local\Temp\ccAIbrbH.s 			page 3


  78              	.LFE64:
  79              		.size	TurnOff, .-TurnOff
  80              		.section	.text.TurnOn,"ax",%progbits
  81              		.align	2
  82              		.global	TurnOn
  83              		.thumb
  84              		.thumb_func
  85              		.type	TurnOn, %function
  86              	TurnOn:
  87              	.LFB65:
  36:LedHandler.c  **** void TurnOn(int startPos, int amount, int color, int intensity)
  37:LedHandler.c  **** {
  88              		.loc 1 37 0
  89              		.cfi_startproc
  90              		@ args = 0, pretend = 0, frame = 0
  91              		@ frame_needed = 0, uses_anonymous_args = 0
  92              		@ link register save eliminated.
  93              	.LVL4:
  94 0000 70B4     		push	{r4, r5, r6}
  95              		.cfi_def_cfa_offset 12
  96              		.cfi_offset 4, -12
  97              		.cfi_offset 5, -8
  98              		.cfi_offset 6, -4
  38:LedHandler.c  ****     if(startPos+amount > MAX)
  99              		.loc 1 38 0
 100 0002 4418     		adds	r4, r0, r1
 101 0004 112C     		cmp	r4, #17
 102 0006 01DD     		ble	.L8
  39:LedHandler.c  ****     {
  40:LedHandler.c  ****         amount = MAX - startPos;
 103              		.loc 1 40 0
 104 0008 C0F11101 		rsb	r1, r0, #17
 105              	.LVL5:
 106              	.L8:
 107              	.LBB3:
  41:LedHandler.c  ****     }
  42:LedHandler.c  ****     for(int i = startPos; i < startPos + amount; i++)
 108              		.loc 1 42 0
 109 000c 0446     		mov	r4, r0
 110 000e 05E0     		b	.L9
 111              	.LVL6:
 112              	.L10:
  43:LedHandler.c  ****     {
  44:LedHandler.c  ****         pPixelArray[color + i * 3] = (unsigned int) intensity;
 113              		.loc 1 44 0 discriminator 3
 114 0010 04EB4405 		add	r5, r4, r4, lsl #1
 115 0014 1544     		add	r5, r5, r2
 116 0016 044E     		ldr	r6, .L12
 117 0018 7355     		strb	r3, [r6, r5]
  42:LedHandler.c  ****     {
 118              		.loc 1 42 0 discriminator 3
 119 001a 0134     		adds	r4, r4, #1
 120              	.LVL7:
 121              	.L9:
  42:LedHandler.c  ****     {
 122              		.loc 1 42 0 is_stmt 0 discriminator 1
 123 001c 0D18     		adds	r5, r1, r0
ARM GAS  C:\Users\LUCASI~1\AppData\Local\Temp\ccAIbrbH.s 			page 4


 124 001e AC42     		cmp	r4, r5
 125 0020 F6DB     		blt	.L10
 126              	.LBE3:
  45:LedHandler.c  ****     }
  46:LedHandler.c  **** }
 127              		.loc 1 46 0 is_stmt 1
 128 0022 70BC     		pop	{r4, r5, r6}
 129              		.cfi_restore 6
 130              		.cfi_restore 5
 131              		.cfi_restore 4
 132              		.cfi_def_cfa_offset 0
 133              	.LVL8:
 134 0024 7047     		bx	lr
 135              	.L13:
 136 0026 00BF     		.align	2
 137              	.L12:
 138 0028 00000000 		.word	pPixelArray
 139              		.cfi_endproc
 140              	.LFE65:
 141              		.size	TurnOn, .-TurnOn
 142              		.section	.text.StopSequence,"ax",%progbits
 143              		.align	2
 144              		.global	StopSequence
 145              		.thumb
 146              		.thumb_func
 147              		.type	StopSequence, %function
 148              	StopSequence:
 149              	.LFB66:
  47:LedHandler.c  **** void StopSequence()
  48:LedHandler.c  **** {
 150              		.loc 1 48 0
 151              		.cfi_startproc
 152              		@ args = 0, pretend = 0, frame = 0
 153              		@ frame_needed = 0, uses_anonymous_args = 0
 154 0000 10B5     		push	{r4, lr}
 155              		.cfi_def_cfa_offset 8
 156              		.cfi_offset 4, -8
 157              		.cfi_offset 14, -4
 158              	.LVL9:
 159              	.LBB4:
  49:LedHandler.c  ****     for(int i = 0; i < 10; i++)
 160              		.loc 1 49 0
 161 0002 0024     		movs	r4, #0
 162 0004 16E0     		b	.L15
 163              	.LVL10:
 164              	.L16:
  50:LedHandler.c  ****     {
  51:LedHandler.c  ****         TurnOff(0, MAX);
 165              		.loc 1 51 0 discriminator 3
 166 0006 1121     		movs	r1, #17
 167 0008 0020     		movs	r0, #0
 168 000a FFF7FEFF 		bl	TurnOff
 169              	.LVL11:
  52:LedHandler.c  ****         NP_Update();
 170              		.loc 1 52 0 discriminator 3
 171 000e FFF7FEFF 		bl	NP_Update
 172              	.LVL12:
ARM GAS  C:\Users\LUCASI~1\AppData\Local\Temp\ccAIbrbH.s 			page 5


  53:LedHandler.c  ****         CyDelay(500);
 173              		.loc 1 53 0 discriminator 3
 174 0012 4FF4FA70 		mov	r0, #500
 175 0016 FFF7FEFF 		bl	CyDelay
 176              	.LVL13:
  54:LedHandler.c  ****         TurnOn(0, MAX, RED, INTENSITY);
 177              		.loc 1 54 0 discriminator 3
 178 001a 1923     		movs	r3, #25
 179 001c 0122     		movs	r2, #1
 180 001e 1121     		movs	r1, #17
 181 0020 0020     		movs	r0, #0
 182 0022 FFF7FEFF 		bl	TurnOn
 183              	.LVL14:
  55:LedHandler.c  ****         NP_Update();
 184              		.loc 1 55 0 discriminator 3
 185 0026 FFF7FEFF 		bl	NP_Update
 186              	.LVL15:
  56:LedHandler.c  ****         CyDelay(500);
 187              		.loc 1 56 0 discriminator 3
 188 002a 4FF4FA70 		mov	r0, #500
 189 002e FFF7FEFF 		bl	CyDelay
 190              	.LVL16:
  49:LedHandler.c  ****     {
 191              		.loc 1 49 0 discriminator 3
 192 0032 0134     		adds	r4, r4, #1
 193              	.LVL17:
 194              	.L15:
  49:LedHandler.c  ****     {
 195              		.loc 1 49 0 is_stmt 0 discriminator 1
 196 0034 092C     		cmp	r4, #9
 197 0036 E6DD     		ble	.L16
 198              	.LBE4:
  57:LedHandler.c  ****     }
  58:LedHandler.c  **** }
 199              		.loc 1 58 0 is_stmt 1
 200 0038 10BD     		pop	{r4, pc}
 201              		.cfi_endproc
 202              	.LFE66:
 203              		.size	StopSequence, .-StopSequence
 204 003a 00BF     		.section	.text.WeightOffSequence,"ax",%progbits
 205              		.align	2
 206              		.global	WeightOffSequence
 207              		.thumb
 208              		.thumb_func
 209              		.type	WeightOffSequence, %function
 210              	WeightOffSequence:
 211              	.LFB67:
  59:LedHandler.c  **** void WeightOffSequence()
  60:LedHandler.c  **** {
 212              		.loc 1 60 0
 213              		.cfi_startproc
 214              		@ args = 0, pretend = 0, frame = 0
 215              		@ frame_needed = 0, uses_anonymous_args = 0
 216 0000 08B5     		push	{r3, lr}
 217              		.cfi_def_cfa_offset 8
 218              		.cfi_offset 3, -8
 219              		.cfi_offset 14, -4
ARM GAS  C:\Users\LUCASI~1\AppData\Local\Temp\ccAIbrbH.s 			page 6


  61:LedHandler.c  ****     TurnOff(0, MAX);
 220              		.loc 1 61 0
 221 0002 1121     		movs	r1, #17
 222 0004 0020     		movs	r0, #0
 223 0006 FFF7FEFF 		bl	TurnOff
 224              	.LVL18:
  62:LedHandler.c  ****     TurnOn(0,MAX,RED,INTENSITY);
 225              		.loc 1 62 0
 226 000a 1923     		movs	r3, #25
 227 000c 0122     		movs	r2, #1
 228 000e 1121     		movs	r1, #17
 229 0010 0020     		movs	r0, #0
 230 0012 FFF7FEFF 		bl	TurnOn
 231              	.LVL19:
  63:LedHandler.c  ****     NP_Update();
 232              		.loc 1 63 0
 233 0016 FFF7FEFF 		bl	NP_Update
 234              	.LVL20:
 235 001a 08BD     		pop	{r3, pc}
 236              		.cfi_endproc
 237              	.LFE67:
 238              		.size	WeightOffSequence, .-WeightOffSequence
 239              		.section	.text.WeightOnSequence,"ax",%progbits
 240              		.align	2
 241              		.global	WeightOnSequence
 242              		.thumb
 243              		.thumb_func
 244              		.type	WeightOnSequence, %function
 245              	WeightOnSequence:
 246              	.LFB68:
  64:LedHandler.c  **** }
  65:LedHandler.c  **** void WeightOnSequence()
  66:LedHandler.c  **** {
 247              		.loc 1 66 0
 248              		.cfi_startproc
 249              		@ args = 0, pretend = 0, frame = 0
 250              		@ frame_needed = 0, uses_anonymous_args = 0
 251 0000 08B5     		push	{r3, lr}
 252              		.cfi_def_cfa_offset 8
 253              		.cfi_offset 3, -8
 254              		.cfi_offset 14, -4
  67:LedHandler.c  ****     TurnOff(0, MAX);
 255              		.loc 1 67 0
 256 0002 1121     		movs	r1, #17
 257 0004 0020     		movs	r0, #0
 258 0006 FFF7FEFF 		bl	TurnOff
 259              	.LVL21:
  68:LedHandler.c  ****     TurnOn(0,MAX,GREEN,INTENSITY);
 260              		.loc 1 68 0
 261 000a 1923     		movs	r3, #25
 262 000c 0022     		movs	r2, #0
 263 000e 1121     		movs	r1, #17
 264 0010 1046     		mov	r0, r2
 265 0012 FFF7FEFF 		bl	TurnOn
 266              	.LVL22:
  69:LedHandler.c  ****     NP_Update();
 267              		.loc 1 69 0
ARM GAS  C:\Users\LUCASI~1\AppData\Local\Temp\ccAIbrbH.s 			page 7


 268 0016 FFF7FEFF 		bl	NP_Update
 269              	.LVL23:
 270 001a 08BD     		pop	{r3, pc}
 271              		.cfi_endproc
 272              	.LFE68:
 273              		.size	WeightOnSequence, .-WeightOnSequence
 274              		.section	.text.CupHitSequence,"ax",%progbits
 275              		.align	2
 276              		.global	CupHitSequence
 277              		.thumb
 278              		.thumb_func
 279              		.type	CupHitSequence, %function
 280              	CupHitSequence:
 281              	.LFB69:
  70:LedHandler.c  **** }
  71:LedHandler.c  **** void CupHitSequence()
  72:LedHandler.c  **** {
 282              		.loc 1 72 0
 283              		.cfi_startproc
 284              		@ args = 0, pretend = 0, frame = 0
 285              		@ frame_needed = 0, uses_anonymous_args = 0
 286 0000 38B5     		push	{r3, r4, r5, lr}
 287              		.cfi_def_cfa_offset 16
 288              		.cfi_offset 3, -16
 289              		.cfi_offset 4, -12
 290              		.cfi_offset 5, -8
 291              		.cfi_offset 14, -4
 292              	.LVL24:
 293              	.LBB5:
  73:LedHandler.c  ****     int offset=MAX/2;
  74:LedHandler.c  ****     for(int i = 0; i < MAX*10; i++)
 294              		.loc 1 74 0
 295 0002 0025     		movs	r5, #0
 296 0004 3DE0     		b	.L23
 297              	.LVL25:
 298              	.L30:
  75:LedHandler.c  ****     {   
  76:LedHandler.c  ****         TurnOff(0, MAX);
 299              		.loc 1 76 0
 300 0006 1121     		movs	r1, #17
 301 0008 0020     		movs	r0, #0
 302 000a FFF7FEFF 		bl	TurnOff
 303              	.LVL26:
  77:LedHandler.c  ****         TurnOn(i%MAX,3,GREEN,INTENSITY);
 304              		.loc 1 77 0
 305 000e 224C     		ldr	r4, .L32
 306 0010 84FB0534 		smull	r3, r4, r4, r5
 307 0014 EB17     		asrs	r3, r5, #31
 308 0016 C3EBE404 		rsb	r4, r3, r4, asr #3
 309 001a 04EB0414 		add	r4, r4, r4, lsl #4
 310 001e 2C1B     		subs	r4, r5, r4
 311 0020 1923     		movs	r3, #25
 312 0022 0022     		movs	r2, #0
 313 0024 0321     		movs	r1, #3
 314 0026 2046     		mov	r0, r4
 315 0028 FFF7FEFF 		bl	TurnOn
 316              	.LVL27:
ARM GAS  C:\Users\LUCASI~1\AppData\Local\Temp\ccAIbrbH.s 			page 8


  78:LedHandler.c  ****         //if the second pixel flow is above max start from the first pos
  79:LedHandler.c  ****         if(i%MAX+offset > MAX)
 317              		.loc 1 79 0
 318 002c 04F10800 		add	r0, r4, #8
 319 0030 1128     		cmp	r0, #17
 320 0032 07DD     		ble	.L24
  80:LedHandler.c  ****         {
  81:LedHandler.c  ****             TurnOn(i%MAX-offset,3,GREEN,INTENSITY);
 321              		.loc 1 81 0
 322 0034 1923     		movs	r3, #25
 323 0036 0022     		movs	r2, #0
 324 0038 0321     		movs	r1, #3
 325 003a A4F10800 		sub	r0, r4, #8
 326 003e FFF7FEFF 		bl	TurnOn
 327              	.LVL28:
 328 0042 04E0     		b	.L25
 329              	.L24:
  82:LedHandler.c  ****         }
  83:LedHandler.c  ****         else
  84:LedHandler.c  ****         {
  85:LedHandler.c  ****             TurnOn(i%MAX + offset,3,GREEN,INTENSITY);
 330              		.loc 1 85 0
 331 0044 1923     		movs	r3, #25
 332 0046 0022     		movs	r2, #0
 333 0048 0321     		movs	r1, #3
 334 004a FFF7FEFF 		bl	TurnOn
 335              	.LVL29:
 336              	.L25:
  86:LedHandler.c  ****         }
  87:LedHandler.c  ****         //overflow of 1 pixel
  88:LedHandler.c  ****         if(i%MAX == MAX-2 || i%MAX+offset == MAX-2)
 337              		.loc 1 88 0
 338 004e 0F2C     		cmp	r4, #15
 339 0050 01D0     		beq	.L26
 340              		.loc 1 88 0 is_stmt 0 discriminator 1
 341 0052 072C     		cmp	r4, #7
 342 0054 05D1     		bne	.L27
 343              	.L26:
  89:LedHandler.c  ****         {
  90:LedHandler.c  ****             TurnOn(0,1,GREEN,INTENSITY);
 344              		.loc 1 90 0 is_stmt 1
 345 0056 1923     		movs	r3, #25
 346 0058 0022     		movs	r2, #0
 347 005a 0121     		movs	r1, #1
 348 005c 1046     		mov	r0, r2
 349 005e FFF7FEFF 		bl	TurnOn
 350              	.LVL30:
 351              	.L27:
  91:LedHandler.c  ****         }
  92:LedHandler.c  ****         //overflow of 2 pixels
  93:LedHandler.c  ****         if(i%MAX == MAX-1 || i%MAX+offset == MAX-1)
 352              		.loc 1 93 0
 353 0062 102C     		cmp	r4, #16
 354 0064 01D0     		beq	.L28
 355              		.loc 1 93 0 is_stmt 0 discriminator 1
 356 0066 082C     		cmp	r4, #8
 357 0068 05D1     		bne	.L29
ARM GAS  C:\Users\LUCASI~1\AppData\Local\Temp\ccAIbrbH.s 			page 9


 358              	.L28:
  94:LedHandler.c  ****         {
  95:LedHandler.c  ****             TurnOn(0,2,GREEN,INTENSITY);
 359              		.loc 1 95 0 is_stmt 1
 360 006a 1923     		movs	r3, #25
 361 006c 0022     		movs	r2, #0
 362 006e 0221     		movs	r1, #2
 363 0070 1046     		mov	r0, r2
 364 0072 FFF7FEFF 		bl	TurnOn
 365              	.LVL31:
 366              	.L29:
  96:LedHandler.c  ****         }
  97:LedHandler.c  ****         NP_Update();
 367              		.loc 1 97 0 discriminator 2
 368 0076 FFF7FEFF 		bl	NP_Update
 369              	.LVL32:
  98:LedHandler.c  ****         CyDelay(25);
 370              		.loc 1 98 0 discriminator 2
 371 007a 1920     		movs	r0, #25
 372 007c FFF7FEFF 		bl	CyDelay
 373              	.LVL33:
  74:LedHandler.c  ****     {   
 374              		.loc 1 74 0 discriminator 2
 375 0080 0135     		adds	r5, r5, #1
 376              	.LVL34:
 377              	.L23:
  74:LedHandler.c  ****     {   
 378              		.loc 1 74 0 is_stmt 0 discriminator 1
 379 0082 A92D     		cmp	r5, #169
 380 0084 BFDD     		ble	.L30
 381              	.LBE5:
  99:LedHandler.c  ****     }
 100:LedHandler.c  ****     TurnOn(0,MAX,GREEN,INTENSITY);
 382              		.loc 1 100 0 is_stmt 1
 383 0086 1923     		movs	r3, #25
 384 0088 0022     		movs	r2, #0
 385 008a 1121     		movs	r1, #17
 386 008c 1046     		mov	r0, r2
 387 008e FFF7FEFF 		bl	TurnOn
 388              	.LVL35:
 101:LedHandler.c  ****     NP_Update();
 389              		.loc 1 101 0
 390 0092 FFF7FEFF 		bl	NP_Update
 391              	.LVL36:
 392 0096 38BD     		pop	{r3, r4, r5, pc}
 393              	.LVL37:
 394              	.L33:
 395              		.align	2
 396              	.L32:
 397 0098 79787878 		.word	2021161081
 398              		.cfi_endproc
 399              	.LFE69:
 400              		.size	CupHitSequence, .-CupHitSequence
 401              		.section	.text.StartSequence,"ax",%progbits
 402              		.align	2
 403              		.global	StartSequence
 404              		.thumb
ARM GAS  C:\Users\LUCASI~1\AppData\Local\Temp\ccAIbrbH.s 			page 10


 405              		.thumb_func
 406              		.type	StartSequence, %function
 407              	StartSequence:
 408              	.LFB70:
 102:LedHandler.c  **** }
 103:LedHandler.c  **** void StartSequence()
 104:LedHandler.c  **** {
 409              		.loc 1 104 0
 410              		.cfi_startproc
 411              		@ args = 0, pretend = 0, frame = 0
 412              		@ frame_needed = 0, uses_anonymous_args = 0
 413 0000 38B5     		push	{r3, r4, r5, lr}
 414              		.cfi_def_cfa_offset 16
 415              		.cfi_offset 3, -16
 416              		.cfi_offset 4, -12
 417              		.cfi_offset 5, -8
 418              		.cfi_offset 14, -4
 105:LedHandler.c  ****     TurnOff(0, MAX);
 419              		.loc 1 105 0
 420 0002 1121     		movs	r1, #17
 421 0004 0020     		movs	r0, #0
 422 0006 FFF7FEFF 		bl	TurnOff
 423              	.LVL38:
 106:LedHandler.c  ****     //red
 107:LedHandler.c  ****     TurnOn(0,MAX/4,RED, INTENSITY);
 424              		.loc 1 107 0
 425 000a 1923     		movs	r3, #25
 426 000c 0122     		movs	r2, #1
 427 000e 0421     		movs	r1, #4
 428 0010 0020     		movs	r0, #0
 429 0012 FFF7FEFF 		bl	TurnOn
 430              	.LVL39:
 108:LedHandler.c  ****     NP_Update();
 431              		.loc 1 108 0
 432 0016 FFF7FEFF 		bl	NP_Update
 433              	.LVL40:
 109:LedHandler.c  ****     CyDelay(1000);
 434              		.loc 1 109 0
 435 001a 4FF47A70 		mov	r0, #1000
 436 001e FFF7FEFF 		bl	CyDelay
 437              	.LVL41:
 438              	.LBB6:
 110:LedHandler.c  ****     //yellow
 111:LedHandler.c  ****     for(int i = 1; i <= 2; i++)
 439              		.loc 1 111 0
 440 0022 0124     		movs	r4, #1
 441 0024 13E0     		b	.L35
 442              	.LVL42:
 443              	.L36:
 112:LedHandler.c  ****     {
 113:LedHandler.c  ****         TurnOn(MAX/4*i,MAX/4,RED, INTENSITY);
 444              		.loc 1 113 0 discriminator 3
 445 0026 A500     		lsls	r5, r4, #2
 446 0028 1923     		movs	r3, #25
 447 002a 0122     		movs	r2, #1
 448 002c 0421     		movs	r1, #4
 449 002e 2846     		mov	r0, r5
ARM GAS  C:\Users\LUCASI~1\AppData\Local\Temp\ccAIbrbH.s 			page 11


 450 0030 FFF7FEFF 		bl	TurnOn
 451              	.LVL43:
 114:LedHandler.c  ****         TurnOn(MAX/4*i,MAX/4,GREEN, INTENSITY);
 452              		.loc 1 114 0 discriminator 3
 453 0034 1923     		movs	r3, #25
 454 0036 0022     		movs	r2, #0
 455 0038 0421     		movs	r1, #4
 456 003a 2846     		mov	r0, r5
 457 003c FFF7FEFF 		bl	TurnOn
 458              	.LVL44:
 115:LedHandler.c  ****         NP_Update();
 459              		.loc 1 115 0 discriminator 3
 460 0040 FFF7FEFF 		bl	NP_Update
 461              	.LVL45:
 116:LedHandler.c  ****         CyDelay(1000);
 462              		.loc 1 116 0 discriminator 3
 463 0044 4FF47A70 		mov	r0, #1000
 464 0048 FFF7FEFF 		bl	CyDelay
 465              	.LVL46:
 111:LedHandler.c  ****     {
 466              		.loc 1 111 0 discriminator 3
 467 004c 0134     		adds	r4, r4, #1
 468              	.LVL47:
 469              	.L35:
 111:LedHandler.c  ****     {
 470              		.loc 1 111 0 is_stmt 0 discriminator 1
 471 004e 022C     		cmp	r4, #2
 472 0050 E9DD     		ble	.L36
 473              	.LBE6:
 117:LedHandler.c  ****     }
 118:LedHandler.c  ****     //green
 119:LedHandler.c  ****     TurnOn(MAX/4*3,MAX/4,GREEN, INTENSITY);
 474              		.loc 1 119 0 is_stmt 1
 475 0052 1923     		movs	r3, #25
 476 0054 0022     		movs	r2, #0
 477 0056 0421     		movs	r1, #4
 478 0058 0C20     		movs	r0, #12
 479 005a FFF7FEFF 		bl	TurnOn
 480              	.LVL48:
 120:LedHandler.c  ****     NP_Update();
 481              		.loc 1 120 0
 482 005e FFF7FEFF 		bl	NP_Update
 483              	.LVL49:
 121:LedHandler.c  ****     CyDelay(1000);
 484              		.loc 1 121 0
 485 0062 4FF47A70 		mov	r0, #1000
 486 0066 FFF7FEFF 		bl	CyDelay
 487              	.LVL50:
 122:LedHandler.c  ****     TurnOff(0, MAX);
 488              		.loc 1 122 0
 489 006a 1121     		movs	r1, #17
 490 006c 0020     		movs	r0, #0
 491 006e FFF7FEFF 		bl	TurnOff
 492              	.LVL51:
 493              	.LBB7:
 123:LedHandler.c  ****     for(int i = 0; i < MAX; i++)
 494              		.loc 1 123 0
ARM GAS  C:\Users\LUCASI~1\AppData\Local\Temp\ccAIbrbH.s 			page 12


 495 0072 0024     		movs	r4, #0
 496              	.LVL52:
 497 0074 0BE0     		b	.L37
 498              	.LVL53:
 499              	.L38:
 124:LedHandler.c  ****     {
 125:LedHandler.c  ****         TurnOn(i,1,GREEN, INTENSITY);
 500              		.loc 1 125 0 discriminator 3
 501 0076 1923     		movs	r3, #25
 502 0078 0022     		movs	r2, #0
 503 007a 0121     		movs	r1, #1
 504 007c 2046     		mov	r0, r4
 505 007e FFF7FEFF 		bl	TurnOn
 506              	.LVL54:
 126:LedHandler.c  ****         NP_Update();
 507              		.loc 1 126 0 discriminator 3
 508 0082 FFF7FEFF 		bl	NP_Update
 509              	.LVL55:
 127:LedHandler.c  ****         CyDelay(25);
 510              		.loc 1 127 0 discriminator 3
 511 0086 1920     		movs	r0, #25
 512 0088 FFF7FEFF 		bl	CyDelay
 513              	.LVL56:
 123:LedHandler.c  ****     {
 514              		.loc 1 123 0 discriminator 3
 515 008c 0134     		adds	r4, r4, #1
 516              	.LVL57:
 517              	.L37:
 123:LedHandler.c  ****     {
 518              		.loc 1 123 0 is_stmt 0 discriminator 1
 519 008e 102C     		cmp	r4, #16
 520 0090 F1DD     		ble	.L38
 521 0092 0024     		movs	r4, #0
 522              	.LVL58:
 523 0094 14E0     		b	.L39
 524              	.LVL59:
 525              	.L40:
 526              	.LBE7:
 527              	.LBB8:
 128:LedHandler.c  ****     }
 129:LedHandler.c  ****     for(int i = 0; i < 4; i++)
 130:LedHandler.c  ****     {
 131:LedHandler.c  ****         TurnOff(0, MAX);
 528              		.loc 1 131 0 is_stmt 1 discriminator 3
 529 0096 1121     		movs	r1, #17
 530 0098 0020     		movs	r0, #0
 531 009a FFF7FEFF 		bl	TurnOff
 532              	.LVL60:
 132:LedHandler.c  ****         NP_Update();
 533              		.loc 1 132 0 discriminator 3
 534 009e FFF7FEFF 		bl	NP_Update
 535              	.LVL61:
 133:LedHandler.c  ****         CyDelay(50);
 536              		.loc 1 133 0 discriminator 3
 537 00a2 3220     		movs	r0, #50
 538 00a4 FFF7FEFF 		bl	CyDelay
 539              	.LVL62:
ARM GAS  C:\Users\LUCASI~1\AppData\Local\Temp\ccAIbrbH.s 			page 13


 134:LedHandler.c  ****         TurnOn(0,MAX,GREEN, INTENSITY);
 540              		.loc 1 134 0 discriminator 3
 541 00a8 1923     		movs	r3, #25
 542 00aa 0022     		movs	r2, #0
 543 00ac 1121     		movs	r1, #17
 544 00ae 1046     		mov	r0, r2
 545 00b0 FFF7FEFF 		bl	TurnOn
 546              	.LVL63:
 135:LedHandler.c  ****         NP_Update();
 547              		.loc 1 135 0 discriminator 3
 548 00b4 FFF7FEFF 		bl	NP_Update
 549              	.LVL64:
 136:LedHandler.c  ****         CyDelay(50);
 550              		.loc 1 136 0 discriminator 3
 551 00b8 3220     		movs	r0, #50
 552 00ba FFF7FEFF 		bl	CyDelay
 553              	.LVL65:
 129:LedHandler.c  ****     {
 554              		.loc 1 129 0 discriminator 3
 555 00be 0134     		adds	r4, r4, #1
 556              	.LVL66:
 557              	.L39:
 129:LedHandler.c  ****     {
 558              		.loc 1 129 0 is_stmt 0 discriminator 1
 559 00c0 032C     		cmp	r4, #3
 560 00c2 E8DD     		ble	.L40
 561              	.LBE8:
 137:LedHandler.c  ****     }
 138:LedHandler.c  **** }...
 562              		.loc 1 138 0 is_stmt 1
 563 00c4 38BD     		pop	{r3, r4, r5, pc}
 564              		.cfi_endproc
 565              	.LFE70:
 566              		.size	StartSequence, .-StartSequence
 567 00c6 00BF     		.section	.text.ledHandler,"ax",%progbits
 568              		.align	2
 569              		.global	ledHandler
 570              		.thumb
 571              		.thumb_func
 572              		.type	ledHandler, %function
 573              	ledHandler:
 574              	.LFB63:
   4:LedHandler.c  ****         case 0:
 575              		.loc 1 4 0
 576              		.cfi_startproc
 577              		@ args = 0, pretend = 0, frame = 0
 578              		@ frame_needed = 0, uses_anonymous_args = 0
 579              	.LVL67:
 580 0000 08B5     		push	{r3, lr}
 581              		.cfi_def_cfa_offset 8
 582              		.cfi_offset 3, -8
 583              		.cfi_offset 14, -4
   5:LedHandler.c  ****     switch (state)
 584              		.loc 1 5 0
 585 0002 0428     		cmp	r0, #4
 586 0004 12D8     		bhi	.L42
 587 0006 DFE800F0 		tbb	[pc, r0]
ARM GAS  C:\Users\LUCASI~1\AppData\Local\Temp\ccAIbrbH.s 			page 14


 588              	.L45:
 589 000a 03       		.byte	(.L44-.L45)/2
 590 000b 06       		.byte	(.L46-.L45)/2
 591 000c 09       		.byte	(.L47-.L45)/2
 592 000d 0C       		.byte	(.L48-.L45)/2
 593 000e 0F       		.byte	(.L49-.L45)/2
 594 000f 00       		.p2align 1
 595              	.L44:
   8:LedHandler.c  ****             StartSequence();
 596              		.loc 1 8 0
 597 0010 FFF7FEFF 		bl	StartSequence
 598              	.LVL68:
   9:LedHandler.c  ****             break;
 599              		.loc 1 9 0
 600 0014 08BD     		pop	{r3, pc}
 601              	.LVL69:
 602              	.L46:
  11:LedHandler.c  ****             StopSequence();
 603              		.loc 1 11 0
 604 0016 FFF7FEFF 		bl	StopSequence
 605              	.LVL70:
  12:LedHandler.c  ****             break;
 606              		.loc 1 12 0
 607 001a 08BD     		pop	{r3, pc}
 608              	.LVL71:
 609              	.L47:
  14:LedHandler.c  ****             CupHitSequence();
 610              		.loc 1 14 0
 611 001c FFF7FEFF 		bl	CupHitSequence
 612              	.LVL72:
  15:LedHandler.c  ****             break;
 613              		.loc 1 15 0
 614 0020 08BD     		pop	{r3, pc}
 615              	.LVL73:
 616              	.L48:
  17:LedHandler.c  ****             WeightOffSequence();
 617              		.loc 1 17 0
 618 0022 FFF7FEFF 		bl	WeightOffSequence
 619              	.LVL74:
  18:LedHandler.c  ****             break;
 620              		.loc 1 18 0
 621 0026 08BD     		pop	{r3, pc}
 622              	.LVL75:
 623              	.L49:
  20:LedHandler.c  ****             WeightOnSequence();
 624              		.loc 1 20 0
 625 0028 FFF7FEFF 		bl	WeightOnSequence
 626              	.LVL76:
 627              	.L42:
 628 002c 08BD     		pop	{r3, pc}
 629              		.cfi_endproc
 630              	.LFE63:
 631              		.size	ledHandler, .-ledHandler
 632              		.comm	pPixelArray,51,4
 633              		.comm	NP_g_nFrameBufferSize,4,4
 634              		.comm	NP_g_pFrameBuffer,4,4
 635              		.comm	NP_g_bOwnsBuffer,1,1
ARM GAS  C:\Users\LUCASI~1\AppData\Local\Temp\ccAIbrbH.s 			page 15


 636              		.comm	NP_g_nDMA_TD,1,1
 637              		.comm	NP_g_nDMA_Chan,1,1
 638              		.comm	NP_g_nNumberOfPixels,4,4
 639 002e 00BF     		.text
 640              	.Letext0:
 641              		.file 2 "c:\\program files (x86)\\cypress\\psoc creator\\4.2\\psoc creator\\import\\gnu\\arm\\5.4.
 642              		.file 3 "c:\\program files (x86)\\cypress\\psoc creator\\4.2\\psoc creator\\import\\gnu\\arm\\5.4.
 643              		.file 4 "Generated_Source\\PSoC5/cytypes.h"
 644              		.file 5 "Generated_Source\\PSoC5/NP_funcs.h"
 645              		.file 6 "Generated_Source\\PSoC5/core_cm3.h"
 646              		.file 7 "LedHandler.h"
 647              		.file 8 "Generated_Source\\PSoC5/CyLib.h"