ARM GAS  C:\Users\LUCASI~1\AppData\Local\Temp\ccirDYhi.s 			page 1


   1              		.syntax unified
   2              		.cpu cortex-m3
   3              		.fpu softvfp
   4              		.eabi_attribute 20, 1
   5              		.eabi_attribute 21, 1
   6              		.eabi_attribute 23, 3
   7              		.eabi_attribute 24, 1
   8              		.eabi_attribute 25, 1
   9              		.eabi_attribute 26, 1
  10              		.eabi_attribute 30, 1
  11              		.eabi_attribute 34, 1
  12              		.eabi_attribute 18, 4
  13              		.thumb
  14              		.syntax unified
  15              		.file	"MotorApp.c"
  16              		.text
  17              	.Ltext0:
  18              		.cfi_sections	.debug_frame
  19              		.section	.text.driveForwards,"ax",%progbits
  20              		.align	2
  21              		.global	driveForwards
  22              		.thumb
  23              		.thumb_func
  24              		.type	driveForwards, %function
  25              	driveForwards:
  26              	.LFB66:
  27              		.file 1 "MotorApp.c"
   1:MotorApp.c    **** #include "MotorApp.h"
   2:MotorApp.c    **** 
   3:MotorApp.c    **** 
   4:MotorApp.c    **** /*
   5:MotorApp.c    **** Dette er et to dimensionelt array der indeholder de forskellige duty cycles der kan sendes til de t
   6:MotorApp.c    **** og vil altid køre således. Ved at skifte rundt rundt i første dimension vil beerdroid dreje endt
   7:MotorApp.c    **** */
   8:MotorApp.c    **** int driveState[7][2] = {{10, 100},
   9:MotorApp.c    ****                         {30, 100},
  10:MotorApp.c    ****                         {50, 100},
  11:MotorApp.c    ****                         {70, 100},
  12:MotorApp.c    ****                         {70, 80},
  13:MotorApp.c    ****                         {70, 60},
  14:MotorApp.c    ****                         {70, 40}};
  15:MotorApp.c    **** 
  16:MotorApp.c    **** 
  17:MotorApp.c    **** //denne funktion skifter tilfældigt rundt i driveState arrayet
  18:MotorApp.c    **** void speedSelect()
  19:MotorApp.c    **** {    
  20:MotorApp.c    ****     if(randState == 0)                      //Når randstate er 0, laves en ny randstate værdi ime
  21:MotorApp.c    ****     {
  22:MotorApp.c    ****         srand(time(0)); 
  23:MotorApp.c    ****         randState = rand() % 7 - 3;
  24:MotorApp.c    ****     }
  25:MotorApp.c    ****     else if(randState < 0)                  //Hvis randstate er under 0 rykkes en gang ned i arraye
  26:MotorApp.c    ****     {
  27:MotorApp.c    ****         changeState(-1);
  28:MotorApp.c    ****         randState++;                        //randsdtate forøges så den til sidst rammer 0 og der
  29:MotorApp.c    ****     }
  30:MotorApp.c    ****     else if(randState > 0)                  //Hvis randstate er over 0 rykkes en gang op i arrayet
ARM GAS  C:\Users\LUCASI~1\AppData\Local\Temp\ccirDYhi.s 			page 2


  31:MotorApp.c    ****     {
  32:MotorApp.c    ****         changeState(1);
  33:MotorApp.c    ****         randState--;                        //randsdtate trækkes 1 fra så den til sidst rammer 0 
  34:MotorApp.c    ****     }
  35:MotorApp.c    **** }
  36:MotorApp.c    **** 
  37:MotorApp.c    **** void changeState(int change)                //Denne funktion sikre at state ikke forlader driveStat
  38:MotorApp.c    **** {
  39:MotorApp.c    ****   
  40:MotorApp.c    ****     
  41:MotorApp.c    ****     if(change == 1 || change == -1)
  42:MotorApp.c    ****     {
  43:MotorApp.c    ****         if(state > 0 && change == -1)
  44:MotorApp.c    ****         {
  45:MotorApp.c    ****             state += change;
  46:MotorApp.c    ****             changeSpeed();
  47:MotorApp.c    ****         }
  48:MotorApp.c    ****         else if(state < 6 && change == 1)
  49:MotorApp.c    ****         {
  50:MotorApp.c    ****             state += change;
  51:MotorApp.c    ****             changeSpeed();
  52:MotorApp.c    ****         } 
  53:MotorApp.c    ****     }
  54:MotorApp.c    **** }
  55:MotorApp.c    **** 
  56:MotorApp.c    **** 
  57:MotorApp.c    **** void driveForwards()                        //Denne funktion sætter motoren til at køre fremad
  58:MotorApp.c    **** {
  28              		.loc 1 58 0
  29              		.cfi_startproc
  30              		@ args = 0, pretend = 0, frame = 0
  31              		@ frame_needed = 0, uses_anonymous_args = 0
  32 0000 08B5     		push	{r3, lr}
  33              		.cfi_def_cfa_offset 8
  34              		.cfi_offset 3, -8
  35              		.cfi_offset 14, -4
  59:MotorApp.c    ****     if(running_ == 1)
  36              		.loc 1 59 0
  37 0002 0F4B     		ldr	r3, .L4
  38 0004 1B68     		ldr	r3, [r3]
  39 0006 012B     		cmp	r3, #1
  40 0008 19D1     		bne	.L1
  60:MotorApp.c    ****     {
  61:MotorApp.c    ****     motorPWM_1_Stop();
  41              		.loc 1 61 0
  42 000a FFF7FEFF 		bl	motorPWM_1_Stop
  43              	.LVL0:
  62:MotorApp.c    ****     motorPWM_2_Stop();
  44              		.loc 1 62 0
  45 000e FFF7FEFF 		bl	motorPWM_2_Stop
  46              	.LVL1:
  63:MotorApp.c    ****     
  64:MotorApp.c    ****     Pin1_dir1_Write(0);
  47              		.loc 1 64 0
  48 0012 0020     		movs	r0, #0
  49 0014 FFF7FEFF 		bl	Pin1_dir1_Write
  50              	.LVL2:
ARM GAS  C:\Users\LUCASI~1\AppData\Local\Temp\ccirDYhi.s 			page 3


  65:MotorApp.c    ****     Pin1_dir2_Write(1);
  51              		.loc 1 65 0
  52 0018 0120     		movs	r0, #1
  53 001a FFF7FEFF 		bl	Pin1_dir2_Write
  54              	.LVL3:
  66:MotorApp.c    ****     Pin2_dir1_Write(0);
  55              		.loc 1 66 0
  56 001e 0020     		movs	r0, #0
  57 0020 FFF7FEFF 		bl	Pin2_dir1_Write
  58              	.LVL4:
  67:MotorApp.c    ****     Pin2_dir2_Write(1);
  59              		.loc 1 67 0
  60 0024 0120     		movs	r0, #1
  61 0026 FFF7FEFF 		bl	Pin2_dir2_Write
  62              	.LVL5:
  68:MotorApp.c    ****     
  69:MotorApp.c    ****     
  70:MotorApp.c    ****     motorPWM_1_WriteCompare(80); //Set speed to current drive state on PWM 1
  63              		.loc 1 70 0
  64 002a 5020     		movs	r0, #80
  65 002c FFF7FEFF 		bl	motorPWM_1_WriteCompare
  66              	.LVL6:
  71:MotorApp.c    ****     motorPWM_2_WriteCompare(80); //Set speed to current drive state on PWM 2
  67              		.loc 1 71 0
  68 0030 5020     		movs	r0, #80
  69 0032 FFF7FEFF 		bl	motorPWM_2_WriteCompare
  70              	.LVL7:
  72:MotorApp.c    ****     
  73:MotorApp.c    ****     motorPWM_1_Start();
  71              		.loc 1 73 0
  72 0036 FFF7FEFF 		bl	motorPWM_1_Start
  73              	.LVL8:
  74:MotorApp.c    ****     motorPWM_2_Start();
  74              		.loc 1 74 0
  75 003a FFF7FEFF 		bl	motorPWM_2_Start
  76              	.LVL9:
  77              	.L1:
  78 003e 08BD     		pop	{r3, pc}
  79              	.L5:
  80              		.align	2
  81              	.L4:
  82 0040 00000000 		.word	running_
  83              		.cfi_endproc
  84              	.LFE66:
  85              		.size	driveForwards, .-driveForwards
  86              		.section	.text.driveBackwards,"ax",%progbits
  87              		.align	2
  88              		.global	driveBackwards
  89              		.thumb
  90              		.thumb_func
  91              		.type	driveBackwards, %function
  92              	driveBackwards:
  93              	.LFB67:
  75:MotorApp.c    ****     }
  76:MotorApp.c    **** }
  77:MotorApp.c    **** 
  78:MotorApp.c    **** void driveBackwards()                       //Denne funktion sætter motoren til at køre bagud
ARM GAS  C:\Users\LUCASI~1\AppData\Local\Temp\ccirDYhi.s 			page 4


  79:MotorApp.c    **** {
  94              		.loc 1 79 0
  95              		.cfi_startproc
  96              		@ args = 0, pretend = 0, frame = 0
  97              		@ frame_needed = 0, uses_anonymous_args = 0
  98 0000 08B5     		push	{r3, lr}
  99              		.cfi_def_cfa_offset 8
 100              		.cfi_offset 3, -8
 101              		.cfi_offset 14, -4
  80:MotorApp.c    ****     if(running_ == 1)
 102              		.loc 1 80 0
 103 0002 0F4B     		ldr	r3, .L9
 104 0004 1B68     		ldr	r3, [r3]
 105 0006 012B     		cmp	r3, #1
 106 0008 19D1     		bne	.L6
  81:MotorApp.c    ****     {
  82:MotorApp.c    ****     motorPWM_1_Stop();
 107              		.loc 1 82 0
 108 000a FFF7FEFF 		bl	motorPWM_1_Stop
 109              	.LVL10:
  83:MotorApp.c    ****     motorPWM_2_Stop();
 110              		.loc 1 83 0
 111 000e FFF7FEFF 		bl	motorPWM_2_Stop
 112              	.LVL11:
  84:MotorApp.c    ****     
  85:MotorApp.c    ****     Pin1_dir1_Write(1);
 113              		.loc 1 85 0
 114 0012 0120     		movs	r0, #1
 115 0014 FFF7FEFF 		bl	Pin1_dir1_Write
 116              	.LVL12:
  86:MotorApp.c    ****     Pin1_dir2_Write(0);
 117              		.loc 1 86 0
 118 0018 0020     		movs	r0, #0
 119 001a FFF7FEFF 		bl	Pin1_dir2_Write
 120              	.LVL13:
  87:MotorApp.c    ****     Pin2_dir1_Write(1);
 121              		.loc 1 87 0
 122 001e 0120     		movs	r0, #1
 123 0020 FFF7FEFF 		bl	Pin2_dir1_Write
 124              	.LVL14:
  88:MotorApp.c    ****     Pin2_dir2_Write(0);
 125              		.loc 1 88 0
 126 0024 0020     		movs	r0, #0
 127 0026 FFF7FEFF 		bl	Pin2_dir2_Write
 128              	.LVL15:
  89:MotorApp.c    ****     
  90:MotorApp.c    ****     motorPWM_1_WriteCompare(80); //Set speed to current drive state on PWM 1
 129              		.loc 1 90 0
 130 002a 5020     		movs	r0, #80
 131 002c FFF7FEFF 		bl	motorPWM_1_WriteCompare
 132              	.LVL16:
  91:MotorApp.c    ****     motorPWM_2_WriteCompare(80); //Set speed to current drive state on PWM 2
 133              		.loc 1 91 0
 134 0030 5020     		movs	r0, #80
 135 0032 FFF7FEFF 		bl	motorPWM_2_WriteCompare
 136              	.LVL17:
  92:MotorApp.c    ****     
ARM GAS  C:\Users\LUCASI~1\AppData\Local\Temp\ccirDYhi.s 			page 5


  93:MotorApp.c    ****     motorPWM_1_Start();
 137              		.loc 1 93 0
 138 0036 FFF7FEFF 		bl	motorPWM_1_Start
 139              	.LVL18:
  94:MotorApp.c    ****     motorPWM_2_Start();
 140              		.loc 1 94 0
 141 003a FFF7FEFF 		bl	motorPWM_2_Start
 142              	.LVL19:
 143              	.L6:
 144 003e 08BD     		pop	{r3, pc}
 145              	.L10:
 146              		.align	2
 147              	.L9:
 148 0040 00000000 		.word	running_
 149              		.cfi_endproc
 150              	.LFE67:
 151              		.size	driveBackwards, .-driveBackwards
 152              		.section	.text.motorStop,"ax",%progbits
 153              		.align	2
 154              		.global	motorStop
 155              		.thumb
 156              		.thumb_func
 157              		.type	motorStop, %function
 158              	motorStop:
 159              	.LFB68:
  95:MotorApp.c    ****     }
  96:MotorApp.c    **** }
  97:MotorApp.c    **** 
  98:MotorApp.c    **** void motorStop()
  99:MotorApp.c    **** {
 160              		.loc 1 99 0
 161              		.cfi_startproc
 162              		@ args = 0, pretend = 0, frame = 0
 163              		@ frame_needed = 0, uses_anonymous_args = 0
 164 0000 08B5     		push	{r3, lr}
 165              		.cfi_def_cfa_offset 8
 166              		.cfi_offset 3, -8
 167              		.cfi_offset 14, -4
 100:MotorApp.c    ****     motorPWM_1_Stop();
 168              		.loc 1 100 0
 169 0002 FFF7FEFF 		bl	motorPWM_1_Stop
 170              	.LVL20:
 101:MotorApp.c    ****     motorPWM_2_Stop();
 171              		.loc 1 101 0
 172 0006 FFF7FEFF 		bl	motorPWM_2_Stop
 173              	.LVL21:
 174 000a 08BD     		pop	{r3, pc}
 175              		.cfi_endproc
 176              	.LFE68:
 177              		.size	motorStop, .-motorStop
 178              		.section	.text.changeSpeed,"ax",%progbits
 179              		.align	2
 180              		.global	changeSpeed
 181              		.thumb
 182              		.thumb_func
 183              		.type	changeSpeed, %function
 184              	changeSpeed:
ARM GAS  C:\Users\LUCASI~1\AppData\Local\Temp\ccirDYhi.s 			page 6


 185              	.LFB69:
 102:MotorApp.c    ****     
 103:MotorApp.c    **** }
 104:MotorApp.c    **** 
 105:MotorApp.c    **** void changeSpeed()                          //Denne funktion ændre placering i driveState, og herm
 106:MotorApp.c    **** {
 186              		.loc 1 106 0
 187              		.cfi_startproc
 188              		@ args = 0, pretend = 0, frame = 0
 189              		@ frame_needed = 0, uses_anonymous_args = 0
 190 0000 08B5     		push	{r3, lr}
 191              		.cfi_def_cfa_offset 8
 192              		.cfi_offset 3, -8
 193              		.cfi_offset 14, -4
 107:MotorApp.c    ****     motorPWM_1_Stop();
 194              		.loc 1 107 0
 195 0002 FFF7FEFF 		bl	motorPWM_1_Stop
 196              	.LVL22:
 108:MotorApp.c    ****     motorPWM_2_Stop();
 197              		.loc 1 108 0
 198 0006 FFF7FEFF 		bl	motorPWM_2_Stop
 199              	.LVL23:
 109:MotorApp.c    ****     
 110:MotorApp.c    ****     if(driveState[state][0] > 9 && driveState[state][0] < 71)     //sikre at arrayet ikke forlades
 200              		.loc 1 110 0
 201 000a 154B     		ldr	r3, .L17
 202 000c 1A68     		ldr	r2, [r3]
 203 000e 154B     		ldr	r3, .L17+4
 204 0010 53F83230 		ldr	r3, [r3, r2, lsl #3]
 205 0014 0A3B     		subs	r3, r3, #10
 206 0016 3C2B     		cmp	r3, #60
 207 0018 09D8     		bhi	.L14
 111:MotorApp.c    ****     {
 112:MotorApp.c    ****         motorPWM_1_WritePeriod(170);
 208              		.loc 1 112 0
 209 001a AA20     		movs	r0, #170
 210 001c FFF7FEFF 		bl	motorPWM_1_WritePeriod
 211              	.LVL24:
 113:MotorApp.c    ****         motorPWM_1_WriteCompare(driveState[state][0]); //Set speed to current drive state on PWM 1 
 212              		.loc 1 113 0
 213 0020 0F4B     		ldr	r3, .L17
 214 0022 1A68     		ldr	r2, [r3]
 215 0024 0F4B     		ldr	r3, .L17+4
 216 0026 13F83200 		ldrb	r0, [r3, r2, lsl #3]	@ zero_extendqisi2
 217 002a FFF7FEFF 		bl	motorPWM_1_WriteCompare
 218              	.LVL25:
 219              	.L14:
 114:MotorApp.c    ****     }
 115:MotorApp.c    ****     if(driveState[state][1] > 39 && driveState[state][1] < 101)     //sikre at arrayet ikke forlade
 220              		.loc 1 115 0
 221 002e 0C4B     		ldr	r3, .L17
 222 0030 1A68     		ldr	r2, [r3]
 223 0032 0C4B     		ldr	r3, .L17+4
 224 0034 03EBC203 		add	r3, r3, r2, lsl #3
 225 0038 5B68     		ldr	r3, [r3, #4]
 226 003a 283B     		subs	r3, r3, #40
 227 003c 3C2B     		cmp	r3, #60
ARM GAS  C:\Users\LUCASI~1\AppData\Local\Temp\ccirDYhi.s 			page 7


 228 003e 0AD8     		bhi	.L15
 116:MotorApp.c    ****     {
 117:MotorApp.c    ****         motorPWM_2_WritePeriod(170);
 229              		.loc 1 117 0
 230 0040 AA20     		movs	r0, #170
 231 0042 FFF7FEFF 		bl	motorPWM_2_WritePeriod
 232              	.LVL26:
 118:MotorApp.c    ****         motorPWM_2_WriteCompare(driveState[state][1]); //Set speed to current drive state on PWM 2 
 233              		.loc 1 118 0
 234 0046 064B     		ldr	r3, .L17
 235 0048 1A68     		ldr	r2, [r3]
 236 004a 064B     		ldr	r3, .L17+4
 237 004c 03EBC203 		add	r3, r3, r2, lsl #3
 238 0050 1879     		ldrb	r0, [r3, #4]	@ zero_extendqisi2
 239 0052 FFF7FEFF 		bl	motorPWM_2_WriteCompare
 240              	.LVL27:
 241              	.L15:
 119:MotorApp.c    ****     }
 120:MotorApp.c    ****     
 121:MotorApp.c    ****     motorPWM_1_Start();
 242              		.loc 1 121 0
 243 0056 FFF7FEFF 		bl	motorPWM_1_Start
 244              	.LVL28:
 122:MotorApp.c    ****     motorPWM_2_Start();
 245              		.loc 1 122 0
 246 005a FFF7FEFF 		bl	motorPWM_2_Start
 247              	.LVL29:
 248 005e 08BD     		pop	{r3, pc}
 249              	.L18:
 250              		.align	2
 251              	.L17:
 252 0060 00000000 		.word	state
 253 0064 00000000 		.word	.LANCHOR0
 254              		.cfi_endproc
 255              	.LFE69:
 256              		.size	changeSpeed, .-changeSpeed
 257              		.section	.text.changeState,"ax",%progbits
 258              		.align	2
 259              		.global	changeState
 260              		.thumb
 261              		.thumb_func
 262              		.type	changeState, %function
 263              	changeState:
 264              	.LFB65:
  38:MotorApp.c    ****   
 265              		.loc 1 38 0
 266              		.cfi_startproc
 267              		@ args = 0, pretend = 0, frame = 0
 268              		@ frame_needed = 0, uses_anonymous_args = 0
 269              	.LVL30:
 270 0000 08B5     		push	{r3, lr}
 271              		.cfi_def_cfa_offset 8
 272              		.cfi_offset 3, -8
 273              		.cfi_offset 14, -4
  41:MotorApp.c    ****     {
 274              		.loc 1 41 0
 275 0002 0128     		cmp	r0, #1
ARM GAS  C:\Users\LUCASI~1\AppData\Local\Temp\ccirDYhi.s 			page 8


 276 0004 02D0     		beq	.L20
  41:MotorApp.c    ****     {
 277              		.loc 1 41 0 is_stmt 0 discriminator 1
 278 0006 B0F1FF3F 		cmp	r0, #-1
 279 000a 15D1     		bne	.L19
 280              	.L20:
  43:MotorApp.c    ****         {
 281              		.loc 1 43 0 is_stmt 1
 282 000c 0B4B     		ldr	r3, .L24
 283 000e 1B68     		ldr	r3, [r3]
 284 0010 002B     		cmp	r3, #0
 285 0012 08DD     		ble	.L22
  43:MotorApp.c    ****         {
 286              		.loc 1 43 0 is_stmt 0 discriminator 1
 287 0014 B0F1FF3F 		cmp	r0, #-1
 288 0018 05D1     		bne	.L22
  45:MotorApp.c    ****             changeSpeed();
 289              		.loc 1 45 0 is_stmt 1
 290 001a 1844     		add	r0, r0, r3
 291              	.LVL31:
 292 001c 074B     		ldr	r3, .L24
 293 001e 1860     		str	r0, [r3]
  46:MotorApp.c    ****         }
 294              		.loc 1 46 0
 295 0020 FFF7FEFF 		bl	changeSpeed
 296              	.LVL32:
 297 0024 08BD     		pop	{r3, pc}
 298              	.LVL33:
 299              	.L22:
  48:MotorApp.c    ****         {
 300              		.loc 1 48 0
 301 0026 052B     		cmp	r3, #5
 302 0028 06DC     		bgt	.L19
  48:MotorApp.c    ****         {
 303              		.loc 1 48 0 is_stmt 0 discriminator 1
 304 002a 0128     		cmp	r0, #1
 305 002c 04D1     		bne	.L19
  50:MotorApp.c    ****             changeSpeed();
 306              		.loc 1 50 0 is_stmt 1
 307 002e 1844     		add	r0, r0, r3
 308              	.LVL34:
 309 0030 024B     		ldr	r3, .L24
 310 0032 1860     		str	r0, [r3]
  51:MotorApp.c    ****         } 
 311              		.loc 1 51 0
 312 0034 FFF7FEFF 		bl	changeSpeed
 313              	.LVL35:
 314              	.L19:
 315 0038 08BD     		pop	{r3, pc}
 316              	.L25:
 317 003a 00BF     		.align	2
 318              	.L24:
 319 003c 00000000 		.word	state
 320              		.cfi_endproc
 321              	.LFE65:
 322              		.size	changeState, .-changeState
 323              		.section	.text.speedSelect,"ax",%progbits
ARM GAS  C:\Users\LUCASI~1\AppData\Local\Temp\ccirDYhi.s 			page 9


 324              		.align	2
 325              		.global	speedSelect
 326              		.thumb
 327              		.thumb_func
 328              		.type	speedSelect, %function
 329              	speedSelect:
 330              	.LFB64:
  19:MotorApp.c    ****     if(randState == 0)                      //Når randstate er 0, laves en ny randstate værdi ime
 331              		.loc 1 19 0
 332              		.cfi_startproc
 333              		@ args = 0, pretend = 0, frame = 0
 334              		@ frame_needed = 0, uses_anonymous_args = 0
 335 0000 08B5     		push	{r3, lr}
 336              		.cfi_def_cfa_offset 8
 337              		.cfi_offset 3, -8
 338              		.cfi_offset 14, -4
  20:MotorApp.c    ****     {
 339              		.loc 1 20 0
 340 0002 164B     		ldr	r3, .L31
 341 0004 1B68     		ldr	r3, [r3]
 342 0006 A3B9     		cbnz	r3, .L27
  22:MotorApp.c    ****         randState = rand() % 7 - 3;
 343              		.loc 1 22 0
 344 0008 0020     		movs	r0, #0
 345 000a FFF7FEFF 		bl	time
 346              	.LVL36:
 347 000e FFF7FEFF 		bl	srand
 348              	.LVL37:
  23:MotorApp.c    ****     }
 349              		.loc 1 23 0
 350 0012 FFF7FEFF 		bl	rand
 351              	.LVL38:
 352 0016 124A     		ldr	r2, .L31+4
 353 0018 80FB0223 		smull	r2, r3, r0, r2
 354 001c C218     		adds	r2, r0, r3
 355 001e C317     		asrs	r3, r0, #31
 356 0020 C3EBA203 		rsb	r3, r3, r2, asr #2
 357 0024 C3EBC303 		rsb	r3, r3, r3, lsl #3
 358 0028 C31A     		subs	r3, r0, r3
 359 002a 033B     		subs	r3, r3, #3
 360 002c 0B4A     		ldr	r2, .L31
 361 002e 1360     		str	r3, [r2]
 362 0030 08BD     		pop	{r3, pc}
 363              	.L27:
  25:MotorApp.c    ****     {
 364              		.loc 1 25 0
 365 0032 002B     		cmp	r3, #0
 366 0034 08DA     		bge	.L29
  27:MotorApp.c    ****         randState++;                        //randsdtate forøges så den til sidst rammer 0 og der
 367              		.loc 1 27 0
 368 0036 4FF0FF30 		mov	r0, #-1
 369 003a FFF7FEFF 		bl	changeState
 370              	.LVL39:
  28:MotorApp.c    ****     }
 371              		.loc 1 28 0
 372 003e 074A     		ldr	r2, .L31
 373 0040 1368     		ldr	r3, [r2]
ARM GAS  C:\Users\LUCASI~1\AppData\Local\Temp\ccirDYhi.s 			page 10


 374 0042 0133     		adds	r3, r3, #1
 375 0044 1360     		str	r3, [r2]
 376 0046 08BD     		pop	{r3, pc}
 377              	.L29:
  30:MotorApp.c    ****     {
 378              		.loc 1 30 0
 379 0048 002B     		cmp	r3, #0
 380 004a 06DD     		ble	.L26
  32:MotorApp.c    ****         randState--;                        //randsdtate trækkes 1 fra så den til sidst rammer 0 
 381              		.loc 1 32 0
 382 004c 0120     		movs	r0, #1
 383 004e FFF7FEFF 		bl	changeState
 384              	.LVL40:
  33:MotorApp.c    ****     }
 385              		.loc 1 33 0
 386 0052 024A     		ldr	r2, .L31
 387 0054 1368     		ldr	r3, [r2]
 388 0056 013B     		subs	r3, r3, #1
 389 0058 1360     		str	r3, [r2]
 390              	.L26:
 391 005a 08BD     		pop	{r3, pc}
 392              	.L32:
 393              		.align	2
 394              	.L31:
 395 005c 00000000 		.word	randState
 396 0060 93244992 		.word	-1840700269
 397              		.cfi_endproc
 398              	.LFE64:
 399              		.size	speedSelect, .-speedSelect
 400              		.section	.text.DelayBased90Turn,"ax",%progbits
 401              		.align	2
 402              		.global	DelayBased90Turn
 403              		.thumb
 404              		.thumb_func
 405              		.type	DelayBased90Turn, %function
 406              	DelayBased90Turn:
 407              	.LFB70:
 123:MotorApp.c    **** }
 124:MotorApp.c    **** 
 125:MotorApp.c    **** void DelayBased90Turn(int dir)
 126:MotorApp.c    **** {
 408              		.loc 1 126 0
 409              		.cfi_startproc
 410              		@ args = 0, pretend = 0, frame = 0
 411              		@ frame_needed = 0, uses_anonymous_args = 0
 412              	.LVL41:
 127:MotorApp.c    ****     if(running_ == 1)
 413              		.loc 1 127 0
 414 0000 214B     		ldr	r3, .L40
 415 0002 1B68     		ldr	r3, [r3]
 416 0004 012B     		cmp	r3, #1
 417 0006 3ED1     		bne	.L39
 126:MotorApp.c    ****     if(running_ == 1)
 418              		.loc 1 126 0
 419 0008 10B5     		push	{r4, lr}
 420              		.cfi_def_cfa_offset 8
 421              		.cfi_offset 4, -8
ARM GAS  C:\Users\LUCASI~1\AppData\Local\Temp\ccirDYhi.s 			page 11


 422              		.cfi_offset 14, -4
 423 000a 0446     		mov	r4, r0
 128:MotorApp.c    ****     {
 129:MotorApp.c    ****     motorPWM_1_Stop();
 424              		.loc 1 129 0
 425 000c FFF7FEFF 		bl	motorPWM_1_Stop
 426              	.LVL42:
 130:MotorApp.c    ****     motorPWM_2_Stop();
 427              		.loc 1 130 0
 428 0010 FFF7FEFF 		bl	motorPWM_2_Stop
 429              	.LVL43:
 131:MotorApp.c    ****     
 132:MotorApp.c    ****     CyDelay(250);
 430              		.loc 1 132 0
 431 0014 FA20     		movs	r0, #250
 432 0016 FFF7FEFF 		bl	CyDelay
 433              	.LVL44:
 133:MotorApp.c    ****     
 134:MotorApp.c    ****     switch(dir)
 434              		.loc 1 134 0
 435 001a 012C     		cmp	r4, #1
 436 001c 02D0     		beq	.L36
 437 001e 022C     		cmp	r4, #2
 438 0020 0DD0     		beq	.L37
 439 0022 18E0     		b	.L35
 440              	.L36:
 135:MotorApp.c    ****     {
 136:MotorApp.c    ****         case 1 :
 137:MotorApp.c    ****             Pin1_dir1_Write(0);
 441              		.loc 1 137 0
 442 0024 0020     		movs	r0, #0
 443 0026 FFF7FEFF 		bl	Pin1_dir1_Write
 444              	.LVL45:
 138:MotorApp.c    ****             Pin1_dir2_Write(1);
 445              		.loc 1 138 0
 446 002a 0120     		movs	r0, #1
 447 002c FFF7FEFF 		bl	Pin1_dir2_Write
 448              	.LVL46:
 139:MotorApp.c    ****             Pin2_dir1_Write(1);
 449              		.loc 1 139 0
 450 0030 0120     		movs	r0, #1
 451 0032 FFF7FEFF 		bl	Pin2_dir1_Write
 452              	.LVL47:
 140:MotorApp.c    ****             Pin2_dir2_Write(0);
 453              		.loc 1 140 0
 454 0036 0020     		movs	r0, #0
 455 0038 FFF7FEFF 		bl	Pin2_dir2_Write
 456              	.LVL48:
 141:MotorApp.c    ****             break;
 457              		.loc 1 141 0
 458 003c 0BE0     		b	.L35
 459              	.L37:
 142:MotorApp.c    ****         case 2 :
 143:MotorApp.c    ****             Pin1_dir2_Write(0);
 460              		.loc 1 143 0
 461 003e 0020     		movs	r0, #0
 462 0040 FFF7FEFF 		bl	Pin1_dir2_Write
ARM GAS  C:\Users\LUCASI~1\AppData\Local\Temp\ccirDYhi.s 			page 12


 463              	.LVL49:
 144:MotorApp.c    ****             Pin1_dir1_Write(1);
 464              		.loc 1 144 0
 465 0044 0120     		movs	r0, #1
 466 0046 FFF7FEFF 		bl	Pin1_dir1_Write
 467              	.LVL50:
 145:MotorApp.c    ****             Pin2_dir2_Write(1);
 468              		.loc 1 145 0
 469 004a 0120     		movs	r0, #1
 470 004c FFF7FEFF 		bl	Pin2_dir2_Write
 471              	.LVL51:
 146:MotorApp.c    ****             Pin2_dir1_Write(0);
 472              		.loc 1 146 0
 473 0050 0020     		movs	r0, #0
 474 0052 FFF7FEFF 		bl	Pin2_dir1_Write
 475              	.LVL52:
 476              	.L35:
 147:MotorApp.c    ****             break;
 148:MotorApp.c    ****     }
 149:MotorApp.c    ****     
 150:MotorApp.c    ****     
 151:MotorApp.c    ****     motorPWM_1_WriteCompare(100);
 477              		.loc 1 151 0
 478 0056 6420     		movs	r0, #100
 479 0058 FFF7FEFF 		bl	motorPWM_1_WriteCompare
 480              	.LVL53:
 152:MotorApp.c    ****     motorPWM_2_WriteCompare(100);
 481              		.loc 1 152 0
 482 005c 6420     		movs	r0, #100
 483 005e FFF7FEFF 		bl	motorPWM_2_WriteCompare
 484              	.LVL54:
 153:MotorApp.c    ****     
 154:MotorApp.c    ****     motorPWM_1_Start();
 485              		.loc 1 154 0
 486 0062 FFF7FEFF 		bl	motorPWM_1_Start
 487              	.LVL55:
 155:MotorApp.c    ****     motorPWM_2_Start();
 488              		.loc 1 155 0
 489 0066 FFF7FEFF 		bl	motorPWM_2_Start
 490              	.LVL56:
 156:MotorApp.c    ****     
 157:MotorApp.c    ****     CyDelay(1000);
 491              		.loc 1 157 0
 492 006a 4FF47A70 		mov	r0, #1000
 493 006e FFF7FEFF 		bl	CyDelay
 494              	.LVL57:
 158:MotorApp.c    ****     
 159:MotorApp.c    ****     motorPWM_1_Stop();
 495              		.loc 1 159 0
 496 0072 FFF7FEFF 		bl	motorPWM_1_Stop
 497              	.LVL58:
 160:MotorApp.c    ****     motorPWM_2_Stop();
 498              		.loc 1 160 0
 499 0076 FFF7FEFF 		bl	motorPWM_2_Stop
 500              	.LVL59:
 161:MotorApp.c    ****     
 162:MotorApp.c    ****     CyDelay(250);
ARM GAS  C:\Users\LUCASI~1\AppData\Local\Temp\ccirDYhi.s 			page 13


 501              		.loc 1 162 0
 502 007a FA20     		movs	r0, #250
 503 007c FFF7FEFF 		bl	CyDelay
 504              	.LVL60:
 163:MotorApp.c    ****     
 164:MotorApp.c    ****     driveForwards(); 
 505              		.loc 1 164 0
 506 0080 FFF7FEFF 		bl	driveForwards
 507              	.LVL61:
 508 0084 10BD     		pop	{r4, pc}
 509              	.LVL62:
 510              	.L39:
 511              		.cfi_def_cfa_offset 0
 512              		.cfi_restore 4
 513              		.cfi_restore 14
 514 0086 7047     		bx	lr
 515              	.L41:
 516              		.align	2
 517              	.L40:
 518 0088 00000000 		.word	running_
 519              		.cfi_endproc
 520              	.LFE70:
 521              		.size	DelayBased90Turn, .-DelayBased90Turn
 522              		.section	.text.DelayBased180Turn,"ax",%progbits
 523              		.align	2
 524              		.global	DelayBased180Turn
 525              		.thumb
 526              		.thumb_func
 527              		.type	DelayBased180Turn, %function
 528              	DelayBased180Turn:
 529              	.LFB71:
 165:MotorApp.c    ****     }
 166:MotorApp.c    **** }
 167:MotorApp.c    **** 
 168:MotorApp.c    **** 
 169:MotorApp.c    **** void DelayBased180Turn()
 170:MotorApp.c    **** {
 530              		.loc 1 170 0
 531              		.cfi_startproc
 532              		@ args = 0, pretend = 0, frame = 0
 533              		@ frame_needed = 0, uses_anonymous_args = 0
 534 0000 08B5     		push	{r3, lr}
 535              		.cfi_def_cfa_offset 8
 536              		.cfi_offset 3, -8
 537              		.cfi_offset 14, -4
 171:MotorApp.c    ****     if(running_ == 1)
 538              		.loc 1 171 0
 539 0002 1E4B     		ldr	r3, .L45
 540 0004 1B68     		ldr	r3, [r3]
 541 0006 012B     		cmp	r3, #1
 542 0008 36D1     		bne	.L42
 172:MotorApp.c    ****     {
 173:MotorApp.c    ****     motorPWM_1_Stop();
 543              		.loc 1 173 0
 544 000a FFF7FEFF 		bl	motorPWM_1_Stop
 545              	.LVL63:
 174:MotorApp.c    ****     motorPWM_2_Stop();
ARM GAS  C:\Users\LUCASI~1\AppData\Local\Temp\ccirDYhi.s 			page 14


 546              		.loc 1 174 0
 547 000e FFF7FEFF 		bl	motorPWM_2_Stop
 548              	.LVL64:
 175:MotorApp.c    ****     
 176:MotorApp.c    ****     CyDelay(250);
 549              		.loc 1 176 0
 550 0012 FA20     		movs	r0, #250
 551 0014 FFF7FEFF 		bl	CyDelay
 552              	.LVL65:
 177:MotorApp.c    ****     
 178:MotorApp.c    ****     driveBackwards();
 553              		.loc 1 178 0
 554 0018 FFF7FEFF 		bl	driveBackwards
 555              	.LVL66:
 179:MotorApp.c    ****     
 180:MotorApp.c    ****     CyDelay(2000);
 556              		.loc 1 180 0
 557 001c 4FF4FA60 		mov	r0, #2000
 558 0020 FFF7FEFF 		bl	CyDelay
 559              	.LVL67:
 181:MotorApp.c    ****     
 182:MotorApp.c    ****     motorPWM_1_Stop();
 560              		.loc 1 182 0
 561 0024 FFF7FEFF 		bl	motorPWM_1_Stop
 562              	.LVL68:
 183:MotorApp.c    ****     motorPWM_2_Stop();
 563              		.loc 1 183 0
 564 0028 FFF7FEFF 		bl	motorPWM_2_Stop
 565              	.LVL69:
 184:MotorApp.c    ****     
 185:MotorApp.c    ****     CyDelay(250);
 566              		.loc 1 185 0
 567 002c FA20     		movs	r0, #250
 568 002e FFF7FEFF 		bl	CyDelay
 569              	.LVL70:
 186:MotorApp.c    ****     
 187:MotorApp.c    ****     Pin1_dir1_Write(0);
 570              		.loc 1 187 0
 571 0032 0020     		movs	r0, #0
 572 0034 FFF7FEFF 		bl	Pin1_dir1_Write
 573              	.LVL71:
 188:MotorApp.c    ****     Pin1_dir2_Write(1);
 574              		.loc 1 188 0
 575 0038 0120     		movs	r0, #1
 576 003a FFF7FEFF 		bl	Pin1_dir2_Write
 577              	.LVL72:
 189:MotorApp.c    ****     Pin2_dir1_Write(1);
 578              		.loc 1 189 0
 579 003e 0120     		movs	r0, #1
 580 0040 FFF7FEFF 		bl	Pin2_dir1_Write
 581              	.LVL73:
 190:MotorApp.c    ****     Pin2_dir2_Write(0);
 582              		.loc 1 190 0
 583 0044 0020     		movs	r0, #0
 584 0046 FFF7FEFF 		bl	Pin2_dir2_Write
 585              	.LVL74:
 191:MotorApp.c    ****     
ARM GAS  C:\Users\LUCASI~1\AppData\Local\Temp\ccirDYhi.s 			page 15


 192:MotorApp.c    ****     motorPWM_1_Start();
 586              		.loc 1 192 0
 587 004a FFF7FEFF 		bl	motorPWM_1_Start
 588              	.LVL75:
 193:MotorApp.c    ****     motorPWM_2_Start();
 589              		.loc 1 193 0
 590 004e FFF7FEFF 		bl	motorPWM_2_Start
 591              	.LVL76:
 194:MotorApp.c    ****     
 195:MotorApp.c    ****     motorPWM_1_WriteCompare(100);
 592              		.loc 1 195 0
 593 0052 6420     		movs	r0, #100
 594 0054 FFF7FEFF 		bl	motorPWM_1_WriteCompare
 595              	.LVL77:
 196:MotorApp.c    ****     motorPWM_2_WriteCompare(100);
 596              		.loc 1 196 0
 597 0058 6420     		movs	r0, #100
 598 005a FFF7FEFF 		bl	motorPWM_2_WriteCompare
 599              	.LVL78:
 197:MotorApp.c    ****     
 198:MotorApp.c    ****     CyDelay(1000);
 600              		.loc 1 198 0
 601 005e 4FF47A70 		mov	r0, #1000
 602 0062 FFF7FEFF 		bl	CyDelay
 603              	.LVL79:
 199:MotorApp.c    ****     
 200:MotorApp.c    ****     motorPWM_1_Stop();
 604              		.loc 1 200 0
 605 0066 FFF7FEFF 		bl	motorPWM_1_Stop
 606              	.LVL80:
 201:MotorApp.c    ****     motorPWM_2_Stop();
 607              		.loc 1 201 0
 608 006a FFF7FEFF 		bl	motorPWM_2_Stop
 609              	.LVL81:
 202:MotorApp.c    ****     
 203:MotorApp.c    ****     CyDelay(250);
 610              		.loc 1 203 0
 611 006e FA20     		movs	r0, #250
 612 0070 FFF7FEFF 		bl	CyDelay
 613              	.LVL82:
 204:MotorApp.c    ****     
 205:MotorApp.c    ****     driveForwards();
 614              		.loc 1 205 0
 615 0074 FFF7FEFF 		bl	driveForwards
 616              	.LVL83:
 617              	.L42:
 618 0078 08BD     		pop	{r3, pc}
 619              	.L46:
 620 007a 00BF     		.align	2
 621              	.L45:
 622 007c 00000000 		.word	running_
 623              		.cfi_endproc
 624              	.LFE71:
 625              		.size	DelayBased180Turn, .-DelayBased180Turn
 626              		.global	driveState
 627              		.comm	randState,4,4
 628              		.comm	state,4,4
ARM GAS  C:\Users\LUCASI~1\AppData\Local\Temp\ccirDYhi.s 			page 16


 629              		.comm	NP_g_nFrameBufferSize,4,4
 630              		.comm	NP_g_pFrameBuffer,4,4
 631              		.comm	NP_g_bOwnsBuffer,1,1
 632              		.comm	NP_g_nDMA_TD,1,1
 633              		.comm	NP_g_nDMA_Chan,1,1
 634              		.comm	NP_g_nNumberOfPixels,4,4
 635              		.comm	running_,4,4
 636              		.data
 637              		.align	2
 638              		.set	.LANCHOR0,. + 0
 639              		.type	driveState, %object
 640              		.size	driveState, 56
 641              	driveState:
 642 0000 0A000000 		.word	10
 643 0004 64000000 		.word	100
 644 0008 1E000000 		.word	30
 645 000c 64000000 		.word	100
 646 0010 32000000 		.word	50
 647 0014 64000000 		.word	100
 648 0018 46000000 		.word	70
 649 001c 64000000 		.word	100
 650 0020 46000000 		.word	70
 651 0024 50000000 		.word	80
 652 0028 46000000 		.word	70
 653 002c 3C000000 		.word	60
 654 0030 46000000 		.word	70
 655 0034 28000000 		.word	40
 656              		.text
 657              	.Letext0:
 658              		.file 2 "c:\\program files (x86)\\cypress\\psoc creator\\4.2\\psoc creator\\import\\gnu\\arm\\5.4.
 659              		.file 3 "c:\\program files (x86)\\cypress\\psoc creator\\4.2\\psoc creator\\import\\gnu\\arm\\5.4.
 660              		.file 4 "Generated_Source\\PSoC5/cytypes.h"
 661              		.file 5 "waitingState.h"
 662              		.file 6 "Generated_Source\\PSoC5/NP_funcs.h"
 663              		.file 7 "Generated_Source\\PSoC5/core_cm3.h"
 664              		.file 8 "MotorApp.h"
 665              		.file 9 "Generated_Source\\PSoC5/motorPWM_1.h"
 666              		.file 10 "Generated_Source\\PSoC5/motorPWM_2.h"
 667              		.file 11 "Generated_Source\\PSoC5/Pin1_dir1.h"
 668              		.file 12 "Generated_Source\\PSoC5/Pin1_dir2.h"
 669              		.file 13 "Generated_Source\\PSoC5/Pin2_dir1.h"
 670              		.file 14 "Generated_Source\\PSoC5/Pin2_dir2.h"
 671              		.file 15 "c:\\program files (x86)\\cypress\\psoc creator\\4.2\\psoc creator\\import\\gnu\\arm\\5.4
 672              		.file 16 "c:\\program files (x86)\\cypress\\psoc creator\\4.2\\psoc creator\\import\\gnu\\arm\\5.4
 673              		.file 17 "Generated_Source\\PSoC5/CyLib.h"