ARM GAS  C:\Users\LUCASI~1\AppData\Local\Temp\cc6qwY9a.s 			page 1


   1              		.syntax unified
   2              		.cpu cortex-m3
   3              		.fpu softvfp
   4              		.eabi_attribute 20, 1
   5              		.eabi_attribute 21, 1
   6              		.eabi_attribute 23, 3
   7              		.eabi_attribute 24, 1
   8              		.eabi_attribute 25, 1
   9              		.eabi_attribute 26, 1
  10              		.eabi_attribute 30, 1
  11              		.eabi_attribute 34, 1
  12              		.eabi_attribute 18, 4
  13              		.thumb
  14              		.syntax unified
  15              		.file	"rpiCommunication.c"
  16              		.text
  17              	.Ltext0:
  18              		.cfi_sections	.debug_frame
  19              		.section	.text.isr_rpi_start,"ax",%progbits
  20              		.align	2
  21              		.global	isr_rpi_start
  22              		.thumb
  23              		.thumb_func
  24              		.type	isr_rpi_start, %function
  25              	isr_rpi_start:
  26              	.LFB63:
  27              		.file 1 "rpiCommunication.c"
   1:rpiCommunication.c **** #include "rpiCommunication.h"
   2:rpiCommunication.c **** #include "soundApp.h"
   3:rpiCommunication.c **** #include "project.h"
   4:rpiCommunication.c **** 
   5:rpiCommunication.c **** CY_ISR_PROTO(isr_rpi_start)
   6:rpiCommunication.c **** {
  28              		.loc 1 6 0
  29              		.cfi_startproc
  30              		@ args = 0, pretend = 0, frame = 0
  31              		@ frame_needed = 0, uses_anonymous_args = 0
  32              		@ link register save eliminated.
  33 0000 7047     		bx	lr
  34              		.cfi_endproc
  35              	.LFE63:
  36              		.size	isr_rpi_start, .-isr_rpi_start
  37 0002 00BF     		.section	.text.isr_rpi_stop,"ax",%progbits
  38              		.align	2
  39              		.global	isr_rpi_stop
  40              		.thumb
  41              		.thumb_func
  42              		.type	isr_rpi_stop, %function
  43              	isr_rpi_stop:
  44              	.LFB64:
   7:rpiCommunication.c ****    rpiStart();    
   8:rpiCommunication.c **** }
   9:rpiCommunication.c **** CY_ISR_PROTO(isr_rpi_stop)
  10:rpiCommunication.c **** {
  45              		.loc 1 10 0
  46              		.cfi_startproc
  47              		@ args = 0, pretend = 0, frame = 0
ARM GAS  C:\Users\LUCASI~1\AppData\Local\Temp\cc6qwY9a.s 			page 2


  48              		@ frame_needed = 0, uses_anonymous_args = 0
  49              		.loc 1 10 0
  50 0000 08B5     		push	{r3, lr}
  51              		.cfi_def_cfa_offset 8
  52              		.cfi_offset 3, -8
  53              		.cfi_offset 14, -4
  11:rpiCommunication.c ****     rpiStop();
  12:rpiCommunication.c ****     sendToSOMO(2);
  54              		.loc 1 12 0
  55 0002 0220     		movs	r0, #2
  56 0004 FFF7FEFF 		bl	sendToSOMO
  57              	.LVL0:
  58 0008 08BD     		pop	{r3, pc}
  59              		.cfi_endproc
  60              	.LFE64:
  61              		.size	isr_rpi_stop, .-isr_rpi_stop
  62 000a 00BF     		.section	.text.score,"ax",%progbits
  63              		.align	2
  64              		.global	score
  65              		.thumb
  66              		.thumb_func
  67              		.type	score, %function
  68              	score:
  69              	.LFB65:
  13:rpiCommunication.c **** }
  14:rpiCommunication.c **** 
  15:rpiCommunication.c **** void score()
  16:rpiCommunication.c **** {
  70              		.loc 1 16 0
  71              		.cfi_startproc
  72              		@ args = 0, pretend = 0, frame = 0
  73              		@ frame_needed = 0, uses_anonymous_args = 0
  74 0000 08B5     		push	{r3, lr}
  75              		.cfi_def_cfa_offset 8
  76              		.cfi_offset 3, -8
  77              		.cfi_offset 14, -4
  17:rpiCommunication.c ****     Pin_score_Write(0);
  78              		.loc 1 17 0
  79 0002 0020     		movs	r0, #0
  80 0004 FFF7FEFF 		bl	Pin_score_Write
  81              	.LVL1:
  18:rpiCommunication.c ****     CyDelay(3000);
  82              		.loc 1 18 0
  83 0008 40F6B830 		movw	r0, #3000
  84 000c FFF7FEFF 		bl	CyDelay
  85              	.LVL2:
  19:rpiCommunication.c ****     Pin_score_Write(1);
  86              		.loc 1 19 0
  87 0010 0120     		movs	r0, #1
  88 0012 FFF7FEFF 		bl	Pin_score_Write
  89              	.LVL3:
  90 0016 08BD     		pop	{r3, pc}
  91              		.cfi_endproc
  92              	.LFE65:
  93              		.size	score, .-score
  94              		.section	.text.rpiStart,"ax",%progbits
  95              		.align	2
ARM GAS  C:\Users\LUCASI~1\AppData\Local\Temp\cc6qwY9a.s 			page 3


  96              		.global	rpiStart
  97              		.thumb
  98              		.thumb_func
  99              		.type	rpiStart, %function
 100              	rpiStart:
 101              	.LFB66:
  20:rpiCommunication.c **** }
  21:rpiCommunication.c **** 
  22:rpiCommunication.c **** void rpiStart()
  23:rpiCommunication.c **** {
 102              		.loc 1 23 0
 103              		.cfi_startproc
 104              		@ args = 0, pretend = 0, frame = 0
 105              		@ frame_needed = 0, uses_anonymous_args = 0
 106              		@ link register save eliminated.
 107 0000 7047     		bx	lr
 108              		.cfi_endproc
 109              	.LFE66:
 110              		.size	rpiStart, .-rpiStart
 111 0002 00BF     		.section	.text.rpiStop,"ax",%progbits
 112              		.align	2
 113              		.global	rpiStop
 114              		.thumb
 115              		.thumb_func
 116              		.type	rpiStop, %function
 117              	rpiStop:
 118              	.LFB67:
  24:rpiCommunication.c ****     //rpiRunning = 1;
  25:rpiCommunication.c **** }
  26:rpiCommunication.c **** 
  27:rpiCommunication.c **** void rpiStop()
  28:rpiCommunication.c **** {
 119              		.loc 1 28 0
 120              		.cfi_startproc
 121              		@ args = 0, pretend = 0, frame = 0
 122              		@ frame_needed = 0, uses_anonymous_args = 0
 123              		@ link register save eliminated.
 124 0000 7047     		bx	lr
 125              		.cfi_endproc
 126              	.LFE67:
 127              		.size	rpiStop, .-rpiStop
 128 0002 00BF     		.section	.text.rpiInit,"ax",%progbits
 129              		.align	2
 130              		.global	rpiInit
 131              		.thumb
 132              		.thumb_func
 133              		.type	rpiInit, %function
 134              	rpiInit:
 135              	.LFB68:
  29:rpiCommunication.c ****     //rpiRunning = 0;
  30:rpiCommunication.c ****     
  31:rpiCommunication.c **** }
  32:rpiCommunication.c **** 
  33:rpiCommunication.c **** void rpiInit()
  34:rpiCommunication.c **** {
 136              		.loc 1 34 0
 137              		.cfi_startproc
ARM GAS  C:\Users\LUCASI~1\AppData\Local\Temp\cc6qwY9a.s 			page 4


 138              		@ args = 0, pretend = 0, frame = 0
 139              		@ frame_needed = 0, uses_anonymous_args = 0
 140              		.loc 1 34 0
 141 0000 08B5     		push	{r3, lr}
 142              		.cfi_def_cfa_offset 8
 143              		.cfi_offset 3, -8
 144              		.cfi_offset 14, -4
  35:rpiCommunication.c ****     Pin_score_Write(1);
 145              		.loc 1 35 0
 146 0002 0120     		movs	r0, #1
 147 0004 FFF7FEFF 		bl	Pin_score_Write
 148              	.LVL4:
 149 0008 08BD     		pop	{r3, pc}
 150              		.cfi_endproc
 151              	.LFE68:
 152              		.size	rpiInit, .-rpiInit
 153              		.comm	rpiRunning,4,4
 154              		.comm	NP_g_nFrameBufferSize,4,4
 155              		.comm	NP_g_pFrameBuffer,4,4
 156              		.comm	NP_g_bOwnsBuffer,1,1
 157              		.comm	NP_g_nDMA_TD,1,1
 158              		.comm	NP_g_nDMA_Chan,1,1
 159              		.comm	NP_g_nNumberOfPixels,4,4
 160 000a 00BF     		.text
 161              	.Letext0:
 162              		.file 2 "c:\\program files (x86)\\cypress\\psoc creator\\4.2\\psoc creator\\import\\gnu\\arm\\5.4.
 163              		.file 3 "c:\\program files (x86)\\cypress\\psoc creator\\4.2\\psoc creator\\import\\gnu\\arm\\5.4.
 164              		.file 4 "Generated_Source\\PSoC5/cytypes.h"
 165              		.file 5 "Generated_Source\\PSoC5/NP_funcs.h"
 166              		.file 6 "Generated_Source\\PSoC5/core_cm3.h"
 167              		.file 7 "rpiCommunication.h"
 168              		.file 8 "soundApp.h"
 169              		.file 9 "Generated_Source\\PSoC5/Pin_score.h"
 170              		.file 10 "Generated_Source\\PSoC5/CyLib.h"