ARM GAS  C:\Users\LUCASI~1\AppData\Local\Temp\cc4rjjSa.s 			page 1


   1              		.syntax unified
   2              		.cpu cortex-m3
   3              		.fpu softvfp
   4              		.eabi_attribute 20, 1
   5              		.eabi_attribute 21, 1
   6              		.eabi_attribute 23, 3
   7              		.eabi_attribute 24, 1
   8              		.eabi_attribute 25, 1
   9              		.eabi_attribute 26, 1
  10              		.eabi_attribute 30, 1
  11              		.eabi_attribute 34, 1
  12              		.eabi_attribute 18, 4
  13              		.thumb
  14              		.syntax unified
  15              		.file	"soundApp.c"
  16              		.text
  17              	.Ltext0:
  18              		.cfi_sections	.debug_frame
  19              		.section	.text.soundInit,"ax",%progbits
  20              		.align	2
  21              		.global	soundInit
  22              		.thumb
  23              		.thumb_func
  24              		.type	soundInit, %function
  25              	soundInit:
  26              	.LFB63:
  27              		.file 1 "soundApp.c"
   1:soundApp.c    **** 
   2:soundApp.c    **** #include "soundApp.h"
   3:soundApp.c    **** 
   4:soundApp.c    **** //Commmands
   5:soundApp.c    **** const uint8 volume[ARRAY_SIZE] = {0x7E,0x06,0x00,0x00,0x1D,0xFF,0xDC,0xEF}; //Volume set to 29 (30=
   6:soundApp.c    **** const uint8 setSource[ARRAY_SIZE] = {0x7E,0x09,0x00,0x00,0x02,0xFF,0xF5,0xEF};  //Setting source to
   7:soundApp.c    **** 
   8:soundApp.c    **** const uint8 playStart[ARRAY_SIZE] = {0x7E,0x0F,0x00,0x01,0x01,0xFF,0xEF,0xEF}; //First song on SD c
   9:soundApp.c    **** const uint8 playStop[ARRAY_SIZE] = {0x7E,0x0F,0x00,0x01,0x02,0xFF,0xEE,0xEF};  //Second song on SD 
  10:soundApp.c    **** const uint8 playPoint[ARRAY_SIZE] = {0x7E,0x0F,0x00,0x01,0x03,0xFF,0xED,0xEF}; //Third song on SD c
  11:soundApp.c    **** 
  12:soundApp.c    **** //Init driver and turn volume to max
  13:soundApp.c    **** void soundInit()
  14:soundApp.c    **** {
  28              		.loc 1 14 0
  29              		.cfi_startproc
  30              		@ args = 0, pretend = 0, frame = 0
  31              		@ frame_needed = 0, uses_anonymous_args = 0
  32 0000 10B5     		push	{r4, lr}
  33              		.cfi_def_cfa_offset 8
  34              		.cfi_offset 4, -8
  35              		.cfi_offset 14, -4
  15:soundApp.c    ****     soundUART_Start();
  36              		.loc 1 15 0
  37 0002 FFF7FEFF 		bl	soundUART_Start
  38              	.LVL0:
  16:soundApp.c    ****     soundUART_PutArray(setSource, ARRAY_SIZE);
  39              		.loc 1 16 0
  40 0006 084C     		ldr	r4, .L3
  41 0008 0821     		movs	r1, #8
ARM GAS  C:\Users\LUCASI~1\AppData\Local\Temp\cc4rjjSa.s 			page 2


  42 000a 2046     		mov	r0, r4
  43 000c FFF7FEFF 		bl	soundUART_PutArray
  44              	.LVL1:
  17:soundApp.c    ****     CyDelay(20);
  45              		.loc 1 17 0
  46 0010 1420     		movs	r0, #20
  47 0012 FFF7FEFF 		bl	CyDelay
  48              	.LVL2:
  18:soundApp.c    ****     soundUART_PutArray(volume, ARRAY_SIZE);
  49              		.loc 1 18 0
  50 0016 0821     		movs	r1, #8
  51 0018 6018     		adds	r0, r4, r1
  52 001a FFF7FEFF 		bl	soundUART_PutArray
  53              	.LVL3:
  19:soundApp.c    ****     CyDelay(20);
  54              		.loc 1 19 0
  55 001e 1420     		movs	r0, #20
  56 0020 FFF7FEFF 		bl	CyDelay
  57              	.LVL4:
  58 0024 10BD     		pop	{r4, pc}
  59              	.L4:
  60 0026 00BF     		.align	2
  61              	.L3:
  62 0028 00000000 		.word	.LANCHOR0
  63              		.cfi_endproc
  64              	.LFE63:
  65              		.size	soundInit, .-soundInit
  66              		.section	.text.sendToSOMO,"ax",%progbits
  67              		.align	2
  68              		.global	sendToSOMO
  69              		.thumb
  70              		.thumb_func
  71              		.type	sendToSOMO, %function
  72              	sendToSOMO:
  73              	.LFB64:
  20:soundApp.c    **** }
  21:soundApp.c    **** 
  22:soundApp.c    **** //Send commands to SOMO
  23:soundApp.c    **** void sendToSOMO(int sound)
  24:soundApp.c    **** {
  74              		.loc 1 24 0
  75              		.cfi_startproc
  76              		@ args = 0, pretend = 0, frame = 0
  77              		@ frame_needed = 0, uses_anonymous_args = 0
  78              	.LVL5:
  79 0000 08B5     		push	{r3, lr}
  80              		.cfi_def_cfa_offset 8
  81              		.cfi_offset 3, -8
  82              		.cfi_offset 14, -4
  25:soundApp.c    ****     switch(sound)
  83              		.loc 1 25 0
  84 0002 0228     		cmp	r0, #2
  85 0004 08D0     		beq	.L7
  86 0006 0328     		cmp	r0, #3
  87 0008 0BD0     		beq	.L8
  88 000a 0128     		cmp	r0, #1
  89 000c 0DD1     		bne	.L5
ARM GAS  C:\Users\LUCASI~1\AppData\Local\Temp\cc4rjjSa.s 			page 3


  26:soundApp.c    ****     {
  27:soundApp.c    ****         case 1: soundUART_PutArray(playStart, ARRAY_SIZE);
  90              		.loc 1 27 0
  91 000e 0821     		movs	r1, #8
  92 0010 0648     		ldr	r0, .L11
  93              	.LVL6:
  94 0012 FFF7FEFF 		bl	soundUART_PutArray
  95              	.LVL7:
  28:soundApp.c    ****             break;
  96              		.loc 1 28 0
  97 0016 08BD     		pop	{r3, pc}
  98              	.LVL8:
  99              	.L7:
  29:soundApp.c    ****         case 2: soundUART_PutArray(playStop, ARRAY_SIZE);
 100              		.loc 1 29 0
 101 0018 0821     		movs	r1, #8
 102 001a 0548     		ldr	r0, .L11+4
 103              	.LVL9:
 104 001c FFF7FEFF 		bl	soundUART_PutArray
 105              	.LVL10:
  30:soundApp.c    ****             break;
 106              		.loc 1 30 0
 107 0020 08BD     		pop	{r3, pc}
 108              	.LVL11:
 109              	.L8:
  31:soundApp.c    ****         case 3: soundUART_PutArray(playPoint, ARRAY_SIZE);
 110              		.loc 1 31 0
 111 0022 0821     		movs	r1, #8
 112 0024 0348     		ldr	r0, .L11+8
 113              	.LVL12:
 114 0026 FFF7FEFF 		bl	soundUART_PutArray
 115              	.LVL13:
 116              	.L5:
 117 002a 08BD     		pop	{r3, pc}
 118              	.L12:
 119              		.align	2
 120              	.L11:
 121 002c 10000000 		.word	.LANCHOR0+16
 122 0030 18000000 		.word	.LANCHOR0+24
 123 0034 20000000 		.word	.LANCHOR0+32
 124              		.cfi_endproc
 125              	.LFE64:
 126              		.size	sendToSOMO, .-sendToSOMO
 127              		.global	playPoint
 128              		.global	playStop
 129              		.global	playStart
 130              		.global	setSource
 131              		.global	volume
 132              		.comm	NP_g_nFrameBufferSize,4,4
 133              		.comm	NP_g_pFrameBuffer,4,4
 134              		.comm	NP_g_bOwnsBuffer,1,1
 135              		.comm	NP_g_nDMA_TD,1,1
 136              		.comm	NP_g_nDMA_Chan,1,1
 137              		.comm	NP_g_nNumberOfPixels,4,4
 138              		.section	.rodata
 139              		.align	2
 140              		.set	.LANCHOR0,. + 0
ARM GAS  C:\Users\LUCASI~1\AppData\Local\Temp\cc4rjjSa.s 			page 4


 141              		.type	setSource, %object
 142              		.size	setSource, 8
 143              	setSource:
 144 0000 7E       		.byte	126
 145 0001 09       		.byte	9
 146 0002 00       		.byte	0
 147 0003 00       		.byte	0
 148 0004 02       		.byte	2
 149 0005 FF       		.byte	-1
 150 0006 F5       		.byte	-11
 151 0007 EF       		.byte	-17
 152              		.type	volume, %object
 153              		.size	volume, 8
 154              	volume:
 155 0008 7E       		.byte	126
 156 0009 06       		.byte	6
 157 000a 00       		.byte	0
 158 000b 00       		.byte	0
 159 000c 1D       		.byte	29
 160 000d FF       		.byte	-1
 161 000e DC       		.byte	-36
 162 000f EF       		.byte	-17
 163              		.type	playStart, %object
 164              		.size	playStart, 8
 165              	playStart:
 166 0010 7E       		.byte	126
 167 0011 0F       		.byte	15
 168 0012 00       		.byte	0
 169 0013 01       		.byte	1
 170 0014 01       		.byte	1
 171 0015 FF       		.byte	-1
 172 0016 EF       		.byte	-17
 173 0017 EF       		.byte	-17
 174              		.type	playStop, %object
 175              		.size	playStop, 8
 176              	playStop:
 177 0018 7E       		.byte	126
 178 0019 0F       		.byte	15
 179 001a 00       		.byte	0
 180 001b 01       		.byte	1
 181 001c 02       		.byte	2
 182 001d FF       		.byte	-1
 183 001e EE       		.byte	-18
 184 001f EF       		.byte	-17
 185              		.type	playPoint, %object
 186              		.size	playPoint, 8
 187              	playPoint:
 188 0020 7E       		.byte	126
 189 0021 0F       		.byte	15
 190 0022 00       		.byte	0
 191 0023 01       		.byte	1
 192 0024 03       		.byte	3
 193 0025 FF       		.byte	-1
 194 0026 ED       		.byte	-19
 195 0027 EF       		.byte	-17
 196              		.text
 197              	.Letext0:
ARM GAS  C:\Users\LUCASI~1\AppData\Local\Temp\cc4rjjSa.s 			page 5


 198              		.file 2 "c:\\program files (x86)\\cypress\\psoc creator\\4.2\\psoc creator\\import\\gnu\\arm\\5.4.
 199              		.file 3 "c:\\program files (x86)\\cypress\\psoc creator\\4.2\\psoc creator\\import\\gnu\\arm\\5.4.
 200              		.file 4 "Generated_Source\\PSoC5/cytypes.h"
 201              		.file 5 "Generated_Source\\PSoC5/NP_funcs.h"
 202              		.file 6 "Generated_Source\\PSoC5/core_cm3.h"
 203              		.file 7 "Generated_Source\\PSoC5/soundUART.h"
 204              		.file 8 "Generated_Source\\PSoC5/CyLib.h"