ARM GAS  C:\Users\LUCASI~1\AppData\Local\Temp\ccMNN1O0.s 			page 1


   1              		.syntax unified
   2              		.cpu cortex-m3
   3              		.fpu softvfp
   4              		.eabi_attribute 20, 1
   5              		.eabi_attribute 21, 1
   6              		.eabi_attribute 23, 3
   7              		.eabi_attribute 24, 1
   8              		.eabi_attribute 25, 1
   9              		.eabi_attribute 26, 1
  10              		.eabi_attribute 30, 1
  11              		.eabi_attribute 34, 1
  12              		.eabi_attribute 18, 4
  13              		.thumb
  14              		.syntax unified
  15              		.file	"waitingState.c"
  16              		.text
  17              	.Ltext0:
  18              		.cfi_sections	.debug_frame
  19              		.section	.text.waitingStateStart,"ax",%progbits
  20              		.align	2
  21              		.global	waitingStateStart
  22              		.thumb
  23              		.thumb_func
  24              		.type	waitingStateStart, %function
  25              	waitingStateStart:
  26              	.LFB63:
  27              		.file 1 "waitingState.c"
   1:waitingState.c **** #include "waitingState.h"
   2:waitingState.c **** #include "rpiCommunication.h"
   3:waitingState.c **** #include "scale.h"
   4:waitingState.c **** #include "soundApp.h"
   5:waitingState.c **** #include "LedHandler.h"
   6:waitingState.c **** 
   7:waitingState.c **** void waitingStateStart()
   8:waitingState.c **** {
  28              		.loc 1 8 0
  29              		.cfi_startproc
  30              		@ args = 0, pretend = 0, frame = 0
  31              		@ frame_needed = 0, uses_anonymous_args = 0
  32 0000 08B5     		push	{r3, lr}
  33              		.cfi_def_cfa_offset 8
  34              		.cfi_offset 3, -8
  35              		.cfi_offset 14, -4
   9:waitingState.c ****     if(readScaleStatus() != 0 )
  36              		.loc 1 9 0
  37 0002 FFF7FEFF 		bl	readScaleStatus
  38              	.LVL0:
  39 0006 A0B1     		cbz	r0, .L2
  10:waitingState.c ****     {
  11:waitingState.c ****         ledHandler(WEIGHTON);
  40              		.loc 1 11 0
  41 0008 0420     		movs	r0, #4
  42 000a FFF7FEFF 		bl	ledHandler
  43              	.LVL1:
  12:waitingState.c ****         
  13:waitingState.c ****         if(rpiRunning == 1)
  44              		.loc 1 13 0
ARM GAS  C:\Users\LUCASI~1\AppData\Local\Temp\ccMNN1O0.s 			page 2


  45 000e 0B4B     		ldr	r3, .L5
  46 0010 1B68     		ldr	r3, [r3]
  47 0012 012B     		cmp	r3, #1
  48 0014 10D1     		bne	.L1
  14:waitingState.c ****         {
  15:waitingState.c ****             sendToSOMO(1);
  49              		.loc 1 15 0
  50 0016 0120     		movs	r0, #1
  51 0018 FFF7FEFF 		bl	sendToSOMO
  52              	.LVL2:
  16:waitingState.c ****             ledHandler(START);
  53              		.loc 1 16 0
  54 001c 0020     		movs	r0, #0
  55 001e FFF7FEFF 		bl	ledHandler
  56              	.LVL3:
  17:waitingState.c ****             CyDelay(5000);
  57              		.loc 1 17 0
  58 0022 41F28830 		movw	r0, #5000
  59 0026 FFF7FEFF 		bl	CyDelay
  60              	.LVL4:
  18:waitingState.c ****             running_ = 1;
  61              		.loc 1 18 0
  62 002a 0122     		movs	r2, #1
  63 002c 044B     		ldr	r3, .L5+4
  64 002e 1A60     		str	r2, [r3]
  65 0030 08BD     		pop	{r3, pc}
  66              	.L2:
  19:waitingState.c ****         }
  20:waitingState.c ****     }
  21:waitingState.c ****     else
  22:waitingState.c ****     {
  23:waitingState.c ****         ledHandler(WEIGHTOFF);
  67              		.loc 1 23 0
  68 0032 0320     		movs	r0, #3
  69 0034 FFF7FEFF 		bl	ledHandler
  70              	.LVL5:
  71              	.L1:
  72 0038 08BD     		pop	{r3, pc}
  73              	.L6:
  74 003a 00BF     		.align	2
  75              	.L5:
  76 003c 00000000 		.word	rpiRunning
  77 0040 00000000 		.word	running_
  78              		.cfi_endproc
  79              	.LFE63:
  80              		.size	waitingStateStart, .-waitingStateStart
  81              		.section	.text.waitingStateDrink,"ax",%progbits
  82              		.align	2
  83              		.global	waitingStateDrink
  84              		.thumb
  85              		.thumb_func
  86              		.type	waitingStateDrink, %function
  87              	waitingStateDrink:
  88              	.LFB64:
  24:waitingState.c ****     }
  25:waitingState.c **** }
  26:waitingState.c **** 
ARM GAS  C:\Users\LUCASI~1\AppData\Local\Temp\ccMNN1O0.s 			page 3


  27:waitingState.c **** void waitingStateDrink()
  28:waitingState.c **** {
  89              		.loc 1 28 0
  90              		.cfi_startproc
  91              		@ args = 0, pretend = 0, frame = 0
  92              		@ frame_needed = 0, uses_anonymous_args = 0
  93 0000 08B5     		push	{r3, lr}
  94              		.cfi_def_cfa_offset 8
  95              		.cfi_offset 3, -8
  96              		.cfi_offset 14, -4
  29:waitingState.c ****     running_ = 0;
  97              		.loc 1 29 0
  98 0002 0022     		movs	r2, #0
  99 0004 0D4B     		ldr	r3, .L11
 100 0006 1A60     		str	r2, [r3]
 101              	.LVL6:
  30:waitingState.c ****     
  31:waitingState.c ****     int ScaleOff = 0;
  32:waitingState.c ****     
  33:waitingState.c ****     ledHandler(WEIGHTON);
 102              		.loc 1 33 0
 103 0008 0420     		movs	r0, #4
 104 000a FFF7FEFF 		bl	ledHandler
 105              	.LVL7:
 106              	.L8:
  34:waitingState.c ****     
  35:waitingState.c ****     while(readScaleStatus() == 1)
 107              		.loc 1 35 0 discriminator 1
 108 000e FFF7FEFF 		bl	readScaleStatus
 109              	.LVL8:
 110 0012 0128     		cmp	r0, #1
 111 0014 FBD0     		beq	.L8
  36:waitingState.c ****     {
  37:waitingState.c ****        //wait
  38:waitingState.c ****     }
  39:waitingState.c ****     
  40:waitingState.c ****     ledHandler(WEIGHTOFF);
 112              		.loc 1 40 0
 113 0016 0320     		movs	r0, #3
 114 0018 FFF7FEFF 		bl	ledHandler
 115              	.LVL9:
 116              	.L9:
  41:waitingState.c ****     
  42:waitingState.c ****     while(readScaleStatus() != 1)
 117              		.loc 1 42 0 discriminator 1
 118 001c FFF7FEFF 		bl	readScaleStatus
 119              	.LVL10:
 120 0020 0128     		cmp	r0, #1
 121 0022 FBD1     		bne	.L9
  43:waitingState.c ****     {
  44:waitingState.c ****         //wait
  45:waitingState.c ****     }
  46:waitingState.c ****     
  47:waitingState.c ****     ledHandler(WEIGHTON);
 122              		.loc 1 47 0
 123 0024 0420     		movs	r0, #4
 124 0026 FFF7FEFF 		bl	ledHandler
ARM GAS  C:\Users\LUCASI~1\AppData\Local\Temp\ccMNN1O0.s 			page 4


 125              	.LVL11:
  48:waitingState.c ****     
  49:waitingState.c **** 
  50:waitingState.c ****     CyDelay(2000);
 126              		.loc 1 50 0
 127 002a 4FF4FA60 		mov	r0, #2000
 128 002e FFF7FEFF 		bl	CyDelay
 129              	.LVL12:
  51:waitingState.c ****     
  52:waitingState.c ****     running_ = 1;
 130              		.loc 1 52 0
 131 0032 0122     		movs	r2, #1
 132 0034 014B     		ldr	r3, .L11
 133 0036 1A60     		str	r2, [r3]
 134 0038 08BD     		pop	{r3, pc}
 135              	.L12:
 136 003a 00BF     		.align	2
 137              	.L11:
 138 003c 00000000 		.word	running_
 139              		.cfi_endproc
 140              	.LFE64:
 141              		.size	waitingStateDrink, .-waitingStateDrink
 142              		.comm	pPixelArray,51,4
 143              		.comm	status_scale,2,2
 144              		.comm	count_not_ok,2,2
 145              		.comm	count_ok,2,2
 146              		.comm	measurement,2,2
 147              		.comm	uartBuffer,256,4
 148              		.comm	result,2,2
 149              		.comm	rpiRunning,4,4
 150              		.comm	NP_g_nFrameBufferSize,4,4
 151              		.comm	NP_g_pFrameBuffer,4,4
 152              		.comm	NP_g_bOwnsBuffer,1,1
 153              		.comm	NP_g_nDMA_TD,1,1
 154              		.comm	NP_g_nDMA_Chan,1,1
 155              		.comm	NP_g_nNumberOfPixels,4,4
 156              		.comm	running_,4,4
 157              		.text
 158              	.Letext0:
 159              		.file 2 "c:\\program files (x86)\\cypress\\psoc creator\\4.2\\psoc creator\\import\\gnu\\arm\\5.4.
 160              		.file 3 "c:\\program files (x86)\\cypress\\psoc creator\\4.2\\psoc creator\\import\\gnu\\arm\\5.4.
 161              		.file 4 "Generated_Source\\PSoC5/cytypes.h"
 162              		.file 5 "waitingState.h"
 163              		.file 6 "Generated_Source\\PSoC5/NP_funcs.h"
 164              		.file 7 "Generated_Source\\PSoC5/core_cm3.h"
 165              		.file 8 "rpiCommunication.h"
 166              		.file 9 "scale.h"
 167              		.file 10 "LedHandler.h"
 168              		.file 11 "soundApp.h"
 169              		.file 12 "Generated_Source\\PSoC5/CyLib.h"