ARM GAS  C:\Users\LUCASI~1\AppData\Local\Temp\ccORfloU.s 			page 1


   1              		.syntax unified
   2              		.cpu cortex-m3
   3              		.fpu softvfp
   4              		.eabi_attribute 20, 1
   5              		.eabi_attribute 21, 1
   6              		.eabi_attribute 23, 3
   7              		.eabi_attribute 24, 1
   8              		.eabi_attribute 25, 1
   9              		.eabi_attribute 26, 1
  10              		.eabi_attribute 30, 1
  11              		.eabi_attribute 34, 1
  12              		.eabi_attribute 18, 4
  13              		.thumb
  14              		.syntax unified
  15              		.file	"BoostConv_1.c"
  16              		.text
  17              	.Ltext0:
  18              		.cfi_sections	.debug_frame
  19              		.section	.text.BoostConv_1_Enable,"ax",%progbits
  20              		.align	2
  21              		.global	BoostConv_1_Enable
  22              		.thumb
  23              		.thumb_func
  24              		.type	BoostConv_1_Enable, %function
  25              	BoostConv_1_Enable:
  26              	.LFB3:
  27              		.file 1 "Generated_Source\\PSoC5\\BoostConv_1.c"
   1:Generated_Source\PSoC5/BoostConv_1.c **** /*******************************************************************************
   2:Generated_Source\PSoC5/BoostConv_1.c **** * File Name: BoostConv_1.c
   3:Generated_Source\PSoC5/BoostConv_1.c **** * Version 5.0
   4:Generated_Source\PSoC5/BoostConv_1.c **** *
   5:Generated_Source\PSoC5/BoostConv_1.c **** * Description:
   6:Generated_Source\PSoC5/BoostConv_1.c **** *  This file provides the source code to the API for the Boost Component.
   7:Generated_Source\PSoC5/BoostConv_1.c **** *
   8:Generated_Source\PSoC5/BoostConv_1.c **** * Note:
   9:Generated_Source\PSoC5/BoostConv_1.c **** *  None.
  10:Generated_Source\PSoC5/BoostConv_1.c **** *
  11:Generated_Source\PSoC5/BoostConv_1.c **** ********************************************************************************
  12:Generated_Source\PSoC5/BoostConv_1.c **** * Copyright 2008-2013, Cypress Semiconductor Corporation.  All rights reserved.
  13:Generated_Source\PSoC5/BoostConv_1.c **** * You may use this file only in accordance with the license, terms, conditions,
  14:Generated_Source\PSoC5/BoostConv_1.c **** * disclaimers, and limitations in the end user license agreement accompanying
  15:Generated_Source\PSoC5/BoostConv_1.c **** * the software package with which this file was provided.
  16:Generated_Source\PSoC5/BoostConv_1.c **** *******************************************************************************/
  17:Generated_Source\PSoC5/BoostConv_1.c **** 
  18:Generated_Source\PSoC5/BoostConv_1.c **** #include "BoostConv_1.h"
  19:Generated_Source\PSoC5/BoostConv_1.c **** 
  20:Generated_Source\PSoC5/BoostConv_1.c **** uint8 BoostConv_1_initVar = 0u;
  21:Generated_Source\PSoC5/BoostConv_1.c **** static BoostConv_1_BACKUP_STRUCT BoostConv_1_backup = {BoostConv_1_INIT_VOUT,
  22:Generated_Source\PSoC5/BoostConv_1.c ****                                                                  BoostConv_1_BOOSTMODE_ACTIVE};
  23:Generated_Source\PSoC5/BoostConv_1.c **** 
  24:Generated_Source\PSoC5/BoostConv_1.c **** 
  25:Generated_Source\PSoC5/BoostConv_1.c **** /*******************************************************************************
  26:Generated_Source\PSoC5/BoostConv_1.c **** * Function Name: BoostConv_1_Init
  27:Generated_Source\PSoC5/BoostConv_1.c **** ********************************************************************************
  28:Generated_Source\PSoC5/BoostConv_1.c **** *
  29:Generated_Source\PSoC5/BoostConv_1.c **** * Summary:
  30:Generated_Source\PSoC5/BoostConv_1.c **** *  Inits/Restores default BoostConv configuration provided with customizer.
ARM GAS  C:\Users\LUCASI~1\AppData\Local\Temp\ccORfloU.s 			page 2


  31:Generated_Source\PSoC5/BoostConv_1.c **** *
  32:Generated_Source\PSoC5/BoostConv_1.c **** * Parameters:
  33:Generated_Source\PSoC5/BoostConv_1.c **** *  None.
  34:Generated_Source\PSoC5/BoostConv_1.c **** *
  35:Generated_Source\PSoC5/BoostConv_1.c **** * Return:
  36:Generated_Source\PSoC5/BoostConv_1.c **** *  None.
  37:Generated_Source\PSoC5/BoostConv_1.c **** *
  38:Generated_Source\PSoC5/BoostConv_1.c **** *******************************************************************************/
  39:Generated_Source\PSoC5/BoostConv_1.c **** void BoostConv_1_Init(void) 
  40:Generated_Source\PSoC5/BoostConv_1.c **** {
  41:Generated_Source\PSoC5/BoostConv_1.c ****     uint8 tmp;
  42:Generated_Source\PSoC5/BoostConv_1.c ****     uint8 enableInterrupts;
  43:Generated_Source\PSoC5/BoostConv_1.c **** 
  44:Generated_Source\PSoC5/BoostConv_1.c ****     enableInterrupts = CyEnterCriticalSection();
  45:Generated_Source\PSoC5/BoostConv_1.c **** 
  46:Generated_Source\PSoC5/BoostConv_1.c ****     #if (CY_PSOC3)
  47:Generated_Source\PSoC5/BoostConv_1.c ****         /* Accessing Boost block registers in read mode has speed limitation and
  48:Generated_Source\PSoC5/BoostConv_1.c ****          * requires two consecutive reads of registers resides in Boost hard-IP block
  49:Generated_Source\PSoC5/BoostConv_1.c ****          */
  50:Generated_Source\PSoC5/BoostConv_1.c ****         (void) BoostConv_1_CONTROL_REG1;
  51:Generated_Source\PSoC5/BoostConv_1.c ****         tmp = BoostConv_1_CONTROL_REG1;
  52:Generated_Source\PSoC5/BoostConv_1.c ****         /* Enables mode control from xmode[1:0] instead of control register 1 */
  53:Generated_Source\PSoC5/BoostConv_1.c ****         BoostConv_1_CONTROL_REG1 = tmp | BoostConv_1_PWMEXT_ENABLE;
  54:Generated_Source\PSoC5/BoostConv_1.c ****     #endif /* CY_PSOC3 */
  55:Generated_Source\PSoC5/BoostConv_1.c **** 
  56:Generated_Source\PSoC5/BoostConv_1.c ****     /* Accessing Boost block registers in read mode has speed limitation and
  57:Generated_Source\PSoC5/BoostConv_1.c ****      * requires two consecutive reads of registers resides in Boost hard-IP block
  58:Generated_Source\PSoC5/BoostConv_1.c ****      */
  59:Generated_Source\PSoC5/BoostConv_1.c ****     (void) BoostConv_1_CONTROL_REG2;
  60:Generated_Source\PSoC5/BoostConv_1.c ****     tmp = BoostConv_1_CONTROL_REG2;
  61:Generated_Source\PSoC5/BoostConv_1.c **** 
  62:Generated_Source\PSoC5/BoostConv_1.c ****     #if (0u != BoostConv_1_DISABLE_AUTO_BATTERY)
  63:Generated_Source\PSoC5/BoostConv_1.c ****         BoostConv_1_CONTROL_REG2 = tmp | BoostConv_1_AUTO_BATTERY_DISABLE;
  64:Generated_Source\PSoC5/BoostConv_1.c ****     #else
  65:Generated_Source\PSoC5/BoostConv_1.c ****         BoostConv_1_CONTROL_REG2 = tmp & ((uint8) (~BoostConv_1_AUTO_BATTERY_DISABLE));
  66:Generated_Source\PSoC5/BoostConv_1.c ****     #endif /* (0u != BoostConv_1_DISABLE_AUTO_BATTERY) */
  67:Generated_Source\PSoC5/BoostConv_1.c **** 
  68:Generated_Source\PSoC5/BoostConv_1.c ****     CyExitCriticalSection(enableInterrupts);
  69:Generated_Source\PSoC5/BoostConv_1.c **** 
  70:Generated_Source\PSoC5/BoostConv_1.c ****     #if (CY_PSOC3)
  71:Generated_Source\PSoC5/BoostConv_1.c ****         BoostConv_1_SelExtClk(BoostConv_1_EXTCLK_SRC);
  72:Generated_Source\PSoC5/BoostConv_1.c ****     #else /* CY_PSOC5LP */
  73:Generated_Source\PSoC5/BoostConv_1.c ****         /* Accessing Boost block registers in read mode has speed limitation and
  74:Generated_Source\PSoC5/BoostConv_1.c ****          * requires two consecutive reads of registers resides in Boost hard-IP block
  75:Generated_Source\PSoC5/BoostConv_1.c ****          */
  76:Generated_Source\PSoC5/BoostConv_1.c ****         (void) BoostConv_1_CONTROL_REG1;
  77:Generated_Source\PSoC5/BoostConv_1.c ****         tmp = BoostConv_1_CONTROL_REG1;
  78:Generated_Source\PSoC5/BoostConv_1.c **** 
  79:Generated_Source\PSoC5/BoostConv_1.c ****         BoostConv_1_CONTROL_REG1 = (tmp & ((uint8) (~BoostConv_1_FREQ_MASK))) |
  80:Generated_Source\PSoC5/BoostConv_1.c ****                                                          BoostConv_1__SWITCH_FREQ_400KHZ;
  81:Generated_Source\PSoC5/BoostConv_1.c ****     #endif /* CY_PSOC3 */
  82:Generated_Source\PSoC5/BoostConv_1.c **** 
  83:Generated_Source\PSoC5/BoostConv_1.c ****     BoostConv_1_SelVoltage(BoostConv_1_INIT_VOUT);
  84:Generated_Source\PSoC5/BoostConv_1.c ****     BoostConv_1_SetMode(BoostConv_1_BOOSTMODE_ACTIVE);
  85:Generated_Source\PSoC5/BoostConv_1.c **** }
  86:Generated_Source\PSoC5/BoostConv_1.c **** 
  87:Generated_Source\PSoC5/BoostConv_1.c **** 
ARM GAS  C:\Users\LUCASI~1\AppData\Local\Temp\ccORfloU.s 			page 3


  88:Generated_Source\PSoC5/BoostConv_1.c **** /*******************************************************************************
  89:Generated_Source\PSoC5/BoostConv_1.c **** * Function Name: BoostConv_1_Start
  90:Generated_Source\PSoC5/BoostConv_1.c **** ********************************************************************************
  91:Generated_Source\PSoC5/BoostConv_1.c **** *
  92:Generated_Source\PSoC5/BoostConv_1.c **** * Summary:
  93:Generated_Source\PSoC5/BoostConv_1.c **** *  Starts the BoostConv_1 component and puts the boost block into Active
  94:Generated_Source\PSoC5/BoostConv_1.c **** *  mode. The component is in this state when the chip powers up. This is the
  95:Generated_Source\PSoC5/BoostConv_1.c **** *  preferred method to begin component operation. BoostConv_1_Start()
  96:Generated_Source\PSoC5/BoostConv_1.c **** *  sets the initVar variable, calls the BoostConv_1_Init() function, and
  97:Generated_Source\PSoC5/BoostConv_1.c **** *  then calls the BoostConv_1_Enable() function.
  98:Generated_Source\PSoC5/BoostConv_1.c **** *
  99:Generated_Source\PSoC5/BoostConv_1.c **** * Parameters:
 100:Generated_Source\PSoC5/BoostConv_1.c **** *  None.
 101:Generated_Source\PSoC5/BoostConv_1.c **** *
 102:Generated_Source\PSoC5/BoostConv_1.c **** * Return:
 103:Generated_Source\PSoC5/BoostConv_1.c **** *  None.
 104:Generated_Source\PSoC5/BoostConv_1.c **** *
 105:Generated_Source\PSoC5/BoostConv_1.c **** * Global variables:
 106:Generated_Source\PSoC5/BoostConv_1.c **** *  BoostConv_1_initVar - used to check initial configuration, modified on
 107:Generated_Source\PSoC5/BoostConv_1.c **** *  first function call.
 108:Generated_Source\PSoC5/BoostConv_1.c **** *
 109:Generated_Source\PSoC5/BoostConv_1.c **** * Side Effect:
 110:Generated_Source\PSoC5/BoostConv_1.c **** *  If the initVar variable is already set, this function: 1) sets init value
 111:Generated_Source\PSoC5/BoostConv_1.c **** *  of target output voltage (from customizer) and mode (Active mode) or
 112:Generated_Source\PSoC5/BoostConv_1.c **** *  restores target output voltage and mode saved by BoostConv_1_Stop()
 113:Generated_Source\PSoC5/BoostConv_1.c **** *  function; 2) calls the BoostConv_1_Enable() function.
 114:Generated_Source\PSoC5/BoostConv_1.c **** *
 115:Generated_Source\PSoC5/BoostConv_1.c **** * Reentrant:
 116:Generated_Source\PSoC5/BoostConv_1.c **** *  No.
 117:Generated_Source\PSoC5/BoostConv_1.c **** *
 118:Generated_Source\PSoC5/BoostConv_1.c **** *******************************************************************************/
 119:Generated_Source\PSoC5/BoostConv_1.c **** void BoostConv_1_Start(void) 
 120:Generated_Source\PSoC5/BoostConv_1.c **** {
 121:Generated_Source\PSoC5/BoostConv_1.c ****     uint16 timeout = BoostConv_1_STARTUP_TIMEOUT;
 122:Generated_Source\PSoC5/BoostConv_1.c ****     uint8 tmp;
 123:Generated_Source\PSoC5/BoostConv_1.c **** 
 124:Generated_Source\PSoC5/BoostConv_1.c ****     do
 125:Generated_Source\PSoC5/BoostConv_1.c ****     {
 126:Generated_Source\PSoC5/BoostConv_1.c ****         CyDelayUs(1u);
 127:Generated_Source\PSoC5/BoostConv_1.c ****         tmp = BoostConv_1_ReadStatus();
 128:Generated_Source\PSoC5/BoostConv_1.c ****         timeout--;
 129:Generated_Source\PSoC5/BoostConv_1.c **** 
 130:Generated_Source\PSoC5/BoostConv_1.c ****     } while ((0u != timeout) && (BoostConv_1_RDY != (tmp & BoostConv_1_RDY)));
 131:Generated_Source\PSoC5/BoostConv_1.c **** 
 132:Generated_Source\PSoC5/BoostConv_1.c ****     tmp = BoostConv_1_ReadStatus();
 133:Generated_Source\PSoC5/BoostConv_1.c **** 
 134:Generated_Source\PSoC5/BoostConv_1.c ****     if (BoostConv_1_RDY == (tmp & BoostConv_1_RDY))
 135:Generated_Source\PSoC5/BoostConv_1.c ****     {
 136:Generated_Source\PSoC5/BoostConv_1.c ****         if (0u == BoostConv_1_initVar)
 137:Generated_Source\PSoC5/BoostConv_1.c ****         {
 138:Generated_Source\PSoC5/BoostConv_1.c ****             BoostConv_1_Init();
 139:Generated_Source\PSoC5/BoostConv_1.c ****             BoostConv_1_initVar = 1u;
 140:Generated_Source\PSoC5/BoostConv_1.c ****         }
 141:Generated_Source\PSoC5/BoostConv_1.c ****         else
 142:Generated_Source\PSoC5/BoostConv_1.c ****         {
 143:Generated_Source\PSoC5/BoostConv_1.c ****             BoostConv_1_SelVoltage(BoostConv_1_backup.selVoltage);
 144:Generated_Source\PSoC5/BoostConv_1.c ****             BoostConv_1_SetMode(BoostConv_1_backup.mode);
ARM GAS  C:\Users\LUCASI~1\AppData\Local\Temp\ccORfloU.s 			page 4


 145:Generated_Source\PSoC5/BoostConv_1.c ****         }
 146:Generated_Source\PSoC5/BoostConv_1.c **** 
 147:Generated_Source\PSoC5/BoostConv_1.c ****         BoostConv_1_Enable();
 148:Generated_Source\PSoC5/BoostConv_1.c ****     }
 149:Generated_Source\PSoC5/BoostConv_1.c ****     else
 150:Generated_Source\PSoC5/BoostConv_1.c ****     {
 151:Generated_Source\PSoC5/BoostConv_1.c ****         /* Boost internal circuits have not been initialized.
 152:Generated_Source\PSoC5/BoostConv_1.c ****          * Halt CPU in debug mode.
 153:Generated_Source\PSoC5/BoostConv_1.c ****          */
 154:Generated_Source\PSoC5/BoostConv_1.c ****         CYASSERT(0u != 0u);
 155:Generated_Source\PSoC5/BoostConv_1.c ****     }
 156:Generated_Source\PSoC5/BoostConv_1.c **** }
 157:Generated_Source\PSoC5/BoostConv_1.c **** 
 158:Generated_Source\PSoC5/BoostConv_1.c **** 
 159:Generated_Source\PSoC5/BoostConv_1.c **** /*******************************************************************************
 160:Generated_Source\PSoC5/BoostConv_1.c **** * Function Name: BoostConv_1_Stop
 161:Generated_Source\PSoC5/BoostConv_1.c **** ********************************************************************************
 162:Generated_Source\PSoC5/BoostConv_1.c **** *
 163:Generated_Source\PSoC5/BoostConv_1.c **** * Summary:
 164:Generated_Source\PSoC5/BoostConv_1.c **** *  Saves boost converter target output voltage and mode. Disables
 165:Generated_Source\PSoC5/BoostConv_1.c **** *  the BoostConv_1 component.
 166:Generated_Source\PSoC5/BoostConv_1.c **** *
 167:Generated_Source\PSoC5/BoostConv_1.c **** * Parameters:
 168:Generated_Source\PSoC5/BoostConv_1.c **** *  None.
 169:Generated_Source\PSoC5/BoostConv_1.c **** *
 170:Generated_Source\PSoC5/BoostConv_1.c **** * Return:
 171:Generated_Source\PSoC5/BoostConv_1.c **** *  None.
 172:Generated_Source\PSoC5/BoostConv_1.c **** *
 173:Generated_Source\PSoC5/BoostConv_1.c **** * Side Effect:
 174:Generated_Source\PSoC5/BoostConv_1.c **** * Turns off power to the boost converter circuitry. For PSoC 3 sets the boost
 175:Generated_Source\PSoC5/BoostConv_1.c **** * converter to Standby mode, for PSoC 5LP to Sleep mode.
 176:Generated_Source\PSoC5/BoostConv_1.c **** *
 177:Generated_Source\PSoC5/BoostConv_1.c **** * Reentrant:
 178:Generated_Source\PSoC5/BoostConv_1.c **** *  No.
 179:Generated_Source\PSoC5/BoostConv_1.c **** *
 180:Generated_Source\PSoC5/BoostConv_1.c **** *******************************************************************************/
 181:Generated_Source\PSoC5/BoostConv_1.c **** void BoostConv_1_Stop(void) 
 182:Generated_Source\PSoC5/BoostConv_1.c **** {
 183:Generated_Source\PSoC5/BoostConv_1.c ****     uint8 tmp;
 184:Generated_Source\PSoC5/BoostConv_1.c ****     uint8 enableInterrupts;
 185:Generated_Source\PSoC5/BoostConv_1.c **** 
 186:Generated_Source\PSoC5/BoostConv_1.c ****     enableInterrupts = CyEnterCriticalSection();
 187:Generated_Source\PSoC5/BoostConv_1.c **** 
 188:Generated_Source\PSoC5/BoostConv_1.c ****     /* Accessing Boost block registers in read mode has speed limitation and
 189:Generated_Source\PSoC5/BoostConv_1.c ****      * requires two consecutive reads of registers resides in Boost hard-IP block
 190:Generated_Source\PSoC5/BoostConv_1.c ****      */
 191:Generated_Source\PSoC5/BoostConv_1.c ****     (void) BoostConv_1_CONTROL_REG0;
 192:Generated_Source\PSoC5/BoostConv_1.c ****     tmp = BoostConv_1_CONTROL_REG0;
 193:Generated_Source\PSoC5/BoostConv_1.c **** 
 194:Generated_Source\PSoC5/BoostConv_1.c ****     BoostConv_1_backup.mode = (tmp & BoostConv_1_MODE_MASK) >> BoostConv_1_MODE_SHIFT;
 195:Generated_Source\PSoC5/BoostConv_1.c ****     BoostConv_1_backup.selVoltage = tmp & BoostConv_1_VOLTAGE_MASK;
 196:Generated_Source\PSoC5/BoostConv_1.c **** 
 197:Generated_Source\PSoC5/BoostConv_1.c ****     CyExitCriticalSection(enableInterrupts);
 198:Generated_Source\PSoC5/BoostConv_1.c **** 
 199:Generated_Source\PSoC5/BoostConv_1.c ****     BoostConv_1_SelVoltage(BoostConv_1_VOUT_OFF);
 200:Generated_Source\PSoC5/BoostConv_1.c ****     #if (CY_PSOC3)
 201:Generated_Source\PSoC5/BoostConv_1.c ****         BoostConv_1_SetMode(BoostConv_1_BOOSTMODE_STANDBY);
ARM GAS  C:\Users\LUCASI~1\AppData\Local\Temp\ccORfloU.s 			page 5


 202:Generated_Source\PSoC5/BoostConv_1.c ****     #endif /* CY_PSOC3 */
 203:Generated_Source\PSoC5/BoostConv_1.c ****     #if (CY_PSOC5LP)
 204:Generated_Source\PSoC5/BoostConv_1.c ****         BoostConv_1_SetMode(BoostConv_1_BOOSTMODE_SLEEP);
 205:Generated_Source\PSoC5/BoostConv_1.c ****     #endif /* CY_PSOC5LP */
 206:Generated_Source\PSoC5/BoostConv_1.c ****     BoostConv_1_Disable();
 207:Generated_Source\PSoC5/BoostConv_1.c **** }
 208:Generated_Source\PSoC5/BoostConv_1.c **** 
 209:Generated_Source\PSoC5/BoostConv_1.c **** 
 210:Generated_Source\PSoC5/BoostConv_1.c **** /*******************************************************************************
 211:Generated_Source\PSoC5/BoostConv_1.c **** * Function Name: BoostConv_1_Enable
 212:Generated_Source\PSoC5/BoostConv_1.c **** ********************************************************************************
 213:Generated_Source\PSoC5/BoostConv_1.c **** *
 214:Generated_Source\PSoC5/BoostConv_1.c **** * Summary:
 215:Generated_Source\PSoC5/BoostConv_1.c **** *  This function enables the boost only when it is in Active mode. By default
 216:Generated_Source\PSoC5/BoostConv_1.c **** *  this is enabled.
 217:Generated_Source\PSoC5/BoostConv_1.c **** *
 218:Generated_Source\PSoC5/BoostConv_1.c **** * Parameters:
 219:Generated_Source\PSoC5/BoostConv_1.c **** *  None.
 220:Generated_Source\PSoC5/BoostConv_1.c **** *
 221:Generated_Source\PSoC5/BoostConv_1.c **** * Return:
 222:Generated_Source\PSoC5/BoostConv_1.c **** *  None.
 223:Generated_Source\PSoC5/BoostConv_1.c **** *
 224:Generated_Source\PSoC5/BoostConv_1.c **** *******************************************************************************/
 225:Generated_Source\PSoC5/BoostConv_1.c **** void BoostConv_1_Enable(void) 
 226:Generated_Source\PSoC5/BoostConv_1.c **** {
  28              		.loc 1 226 0
  29              		.cfi_startproc
  30              		@ args = 0, pretend = 0, frame = 0
  31              		@ frame_needed = 0, uses_anonymous_args = 0
  32 0000 08B5     		push	{r3, lr}
  33              		.cfi_def_cfa_offset 8
  34              		.cfi_offset 3, -8
  35              		.cfi_offset 14, -4
 227:Generated_Source\PSoC5/BoostConv_1.c ****     uint8 tmp;
 228:Generated_Source\PSoC5/BoostConv_1.c ****     uint8 enableInterrupts;
 229:Generated_Source\PSoC5/BoostConv_1.c **** 
 230:Generated_Source\PSoC5/BoostConv_1.c ****     enableInterrupts = CyEnterCriticalSection();
  36              		.loc 1 230 0
  37 0002 FFF7FEFF 		bl	CyEnterCriticalSection
  38              	.LVL0:
 231:Generated_Source\PSoC5/BoostConv_1.c **** 
 232:Generated_Source\PSoC5/BoostConv_1.c ****     /* Accessing Boost block registers in read mode has speed limitation and
 233:Generated_Source\PSoC5/BoostConv_1.c ****      * requires two consecutive reads of registers resides in Boost hard-IP block
 234:Generated_Source\PSoC5/BoostConv_1.c ****      */
 235:Generated_Source\PSoC5/BoostConv_1.c ****     (void) BoostConv_1_CONTROL_REG1;
  39              		.loc 1 235 0
  40 0006 044B     		ldr	r3, .L3
  41 0008 1A78     		ldrb	r2, [r3]	@ zero_extendqisi2
 236:Generated_Source\PSoC5/BoostConv_1.c ****     tmp = BoostConv_1_CONTROL_REG1;
  42              		.loc 1 236 0
  43 000a 1A78     		ldrb	r2, [r3]	@ zero_extendqisi2
  44              	.LVL1:
 237:Generated_Source\PSoC5/BoostConv_1.c **** 
 238:Generated_Source\PSoC5/BoostConv_1.c ****     BoostConv_1_CONTROL_REG1 = tmp | BoostConv_1_BOOST_ENABLE;
  45              		.loc 1 238 0
  46 000c 42F00802 		orr	r2, r2, #8
  47              	.LVL2:
ARM GAS  C:\Users\LUCASI~1\AppData\Local\Temp\ccORfloU.s 			page 6


  48 0010 1A70     		strb	r2, [r3]
 239:Generated_Source\PSoC5/BoostConv_1.c **** 
 240:Generated_Source\PSoC5/BoostConv_1.c ****     CyExitCriticalSection(enableInterrupts);
  49              		.loc 1 240 0
  50 0012 FFF7FEFF 		bl	CyExitCriticalSection
  51              	.LVL3:
  52 0016 08BD     		pop	{r3, pc}
  53              	.L4:
  54              		.align	2
  55              	.L3:
  56 0018 21430040 		.word	1073759009
  57              		.cfi_endproc
  58              	.LFE3:
  59              		.size	BoostConv_1_Enable, .-BoostConv_1_Enable
  60              		.section	.text.BoostConv_1_Disable,"ax",%progbits
  61              		.align	2
  62              		.global	BoostConv_1_Disable
  63              		.thumb
  64              		.thumb_func
  65              		.type	BoostConv_1_Disable, %function
  66              	BoostConv_1_Disable:
  67              	.LFB4:
 241:Generated_Source\PSoC5/BoostConv_1.c **** }
 242:Generated_Source\PSoC5/BoostConv_1.c **** 
 243:Generated_Source\PSoC5/BoostConv_1.c **** 
 244:Generated_Source\PSoC5/BoostConv_1.c **** /*******************************************************************************
 245:Generated_Source\PSoC5/BoostConv_1.c **** * Function Name: BoostConv_1_Disable
 246:Generated_Source\PSoC5/BoostConv_1.c **** ********************************************************************************
 247:Generated_Source\PSoC5/BoostConv_1.c **** *
 248:Generated_Source\PSoC5/BoostConv_1.c **** * Summary:
 249:Generated_Source\PSoC5/BoostConv_1.c **** *  This function disables the boost.
 250:Generated_Source\PSoC5/BoostConv_1.c **** *
 251:Generated_Source\PSoC5/BoostConv_1.c **** * Parameters:
 252:Generated_Source\PSoC5/BoostConv_1.c **** *  None.
 253:Generated_Source\PSoC5/BoostConv_1.c **** *
 254:Generated_Source\PSoC5/BoostConv_1.c **** * Return:
 255:Generated_Source\PSoC5/BoostConv_1.c **** *  None.
 256:Generated_Source\PSoC5/BoostConv_1.c **** *
 257:Generated_Source\PSoC5/BoostConv_1.c **** *******************************************************************************/
 258:Generated_Source\PSoC5/BoostConv_1.c **** void BoostConv_1_Disable(void) 
 259:Generated_Source\PSoC5/BoostConv_1.c **** {
  68              		.loc 1 259 0
  69              		.cfi_startproc
  70              		@ args = 0, pretend = 0, frame = 0
  71              		@ frame_needed = 0, uses_anonymous_args = 0
  72 0000 08B5     		push	{r3, lr}
  73              		.cfi_def_cfa_offset 8
  74              		.cfi_offset 3, -8
  75              		.cfi_offset 14, -4
 260:Generated_Source\PSoC5/BoostConv_1.c ****     uint8 tmp;
 261:Generated_Source\PSoC5/BoostConv_1.c ****     uint8 enableInterrupts;
 262:Generated_Source\PSoC5/BoostConv_1.c **** 
 263:Generated_Source\PSoC5/BoostConv_1.c ****     enableInterrupts = CyEnterCriticalSection();
  76              		.loc 1 263 0
  77 0002 FFF7FEFF 		bl	CyEnterCriticalSection
  78              	.LVL4:
 264:Generated_Source\PSoC5/BoostConv_1.c **** 
ARM GAS  C:\Users\LUCASI~1\AppData\Local\Temp\ccORfloU.s 			page 7


 265:Generated_Source\PSoC5/BoostConv_1.c ****     /* Accessing Boost block registers in read mode has speed limitation and
 266:Generated_Source\PSoC5/BoostConv_1.c ****      * requires two consecutive reads of registers resides in Boost hard-IP block
 267:Generated_Source\PSoC5/BoostConv_1.c ****      */
 268:Generated_Source\PSoC5/BoostConv_1.c ****     (void) BoostConv_1_CONTROL_REG1;
  79              		.loc 1 268 0
  80 0006 044B     		ldr	r3, .L7
  81 0008 1A78     		ldrb	r2, [r3]	@ zero_extendqisi2
 269:Generated_Source\PSoC5/BoostConv_1.c ****     tmp = BoostConv_1_CONTROL_REG1;
  82              		.loc 1 269 0
  83 000a 1A78     		ldrb	r2, [r3]	@ zero_extendqisi2
  84              	.LVL5:
 270:Generated_Source\PSoC5/BoostConv_1.c **** 
 271:Generated_Source\PSoC5/BoostConv_1.c ****     BoostConv_1_CONTROL_REG1 = tmp & ((uint8) (~BoostConv_1_BOOST_ENABLE));
  85              		.loc 1 271 0
  86 000c 02F0F702 		and	r2, r2, #247
  87              	.LVL6:
  88 0010 1A70     		strb	r2, [r3]
 272:Generated_Source\PSoC5/BoostConv_1.c **** 
 273:Generated_Source\PSoC5/BoostConv_1.c ****     CyExitCriticalSection(enableInterrupts);
  89              		.loc 1 273 0
  90 0012 FFF7FEFF 		bl	CyExitCriticalSection
  91              	.LVL7:
  92 0016 08BD     		pop	{r3, pc}
  93              	.L8:
  94              		.align	2
  95              	.L7:
  96 0018 21430040 		.word	1073759009
  97              		.cfi_endproc
  98              	.LFE4:
  99              		.size	BoostConv_1_Disable, .-BoostConv_1_Disable
 100              		.section	.text.BoostConv_1_SetMode,"ax",%progbits
 101              		.align	2
 102              		.global	BoostConv_1_SetMode
 103              		.thumb
 104              		.thumb_func
 105              		.type	BoostConv_1_SetMode, %function
 106              	BoostConv_1_SetMode:
 107              	.LFB5:
 274:Generated_Source\PSoC5/BoostConv_1.c **** }
 275:Generated_Source\PSoC5/BoostConv_1.c **** 
 276:Generated_Source\PSoC5/BoostConv_1.c **** 
 277:Generated_Source\PSoC5/BoostConv_1.c **** /*******************************************************************************
 278:Generated_Source\PSoC5/BoostConv_1.c **** * Function Name: BoostConv_1_SetMode
 279:Generated_Source\PSoC5/BoostConv_1.c **** ********************************************************************************
 280:Generated_Source\PSoC5/BoostConv_1.c **** *
 281:Generated_Source\PSoC5/BoostConv_1.c **** * Summary:
 282:Generated_Source\PSoC5/BoostConv_1.c **** *  This function sets the mode of the Boost: Active, and Standby for PSoC 3 or
 283:Generated_Source\PSoC5/BoostConv_1.c **** *  Sleep for PSoC 5LP.
 284:Generated_Source\PSoC5/BoostConv_1.c **** *
 285:Generated_Source\PSoC5/BoostConv_1.c **** * Parameters:
 286:Generated_Source\PSoC5/BoostConv_1.c **** *  mode: Mode of operation.
 287:Generated_Source\PSoC5/BoostConv_1.c **** *
 288:Generated_Source\PSoC5/BoostConv_1.c **** * Return:
 289:Generated_Source\PSoC5/BoostConv_1.c **** *  None.
 290:Generated_Source\PSoC5/BoostConv_1.c **** *
 291:Generated_Source\PSoC5/BoostConv_1.c **** * Side Effect:
 292:Generated_Source\PSoC5/BoostConv_1.c **** *  PSoC 3:
ARM GAS  C:\Users\LUCASI~1\AppData\Local\Temp\ccORfloU.s 			page 8


 293:Generated_Source\PSoC5/BoostConv_1.c **** *   1) For Standby mode, this function enables automatic thump mode
 294:Generated_Source\PSoC5/BoostConv_1.c **** *   and sets the switching frequency clock source to the 32-kHz external clock.
 295:Generated_Source\PSoC5/BoostConv_1.c **** *   2) For Active mode this function disables automatic thump mode
 296:Generated_Source\PSoC5/BoostConv_1.c **** *   and sets the switching frequency clock source to the 400-kHz internal clock.
 297:Generated_Source\PSoC5/BoostConv_1.c **** *
 298:Generated_Source\PSoC5/BoostConv_1.c **** *******************************************************************************/
 299:Generated_Source\PSoC5/BoostConv_1.c **** void BoostConv_1_SetMode(uint8 mode) 
 300:Generated_Source\PSoC5/BoostConv_1.c **** {
 108              		.loc 1 300 0
 109              		.cfi_startproc
 110              		@ args = 0, pretend = 0, frame = 0
 111              		@ frame_needed = 0, uses_anonymous_args = 0
 112              	.LVL8:
 113 0000 10B5     		push	{r4, lr}
 114              		.cfi_def_cfa_offset 8
 115              		.cfi_offset 4, -8
 116              		.cfi_offset 14, -4
 117 0002 0446     		mov	r4, r0
 301:Generated_Source\PSoC5/BoostConv_1.c ****     uint8 tmp;
 302:Generated_Source\PSoC5/BoostConv_1.c ****     uint8 enableInterrupts;
 303:Generated_Source\PSoC5/BoostConv_1.c **** 
 304:Generated_Source\PSoC5/BoostConv_1.c ****     #if (CY_PSOC3)
 305:Generated_Source\PSoC5/BoostConv_1.c ****         if (0u == mode)
 306:Generated_Source\PSoC5/BoostConv_1.c ****         {
 307:Generated_Source\PSoC5/BoostConv_1.c ****             /* Parameter value is incompatible with PSoC 3 device.
 308:Generated_Source\PSoC5/BoostConv_1.c ****              * Halt CPU in debug mode.
 309:Generated_Source\PSoC5/BoostConv_1.c ****              */
 310:Generated_Source\PSoC5/BoostConv_1.c ****             CYASSERT(0u != 0u);
 311:Generated_Source\PSoC5/BoostConv_1.c ****         }
 312:Generated_Source\PSoC5/BoostConv_1.c ****     #endif /* CY_PSOC3 */
 313:Generated_Source\PSoC5/BoostConv_1.c ****     #if (CY_PSOC5LP)
 314:Generated_Source\PSoC5/BoostConv_1.c ****         if (1u == mode)
 118              		.loc 1 314 0
 119 0004 0128     		cmp	r0, #1
 120 0006 02D1     		bne	.L10
 315:Generated_Source\PSoC5/BoostConv_1.c ****         {
 316:Generated_Source\PSoC5/BoostConv_1.c ****             /* Parameter value is incompatible with PSoC 5LP device.
 317:Generated_Source\PSoC5/BoostConv_1.c ****              * Halt CPU in debug mode.
 318:Generated_Source\PSoC5/BoostConv_1.c ****              */
 319:Generated_Source\PSoC5/BoostConv_1.c ****             CYASSERT(0u != 0u);
 121              		.loc 1 319 0 discriminator 1
 122 0008 0020     		movs	r0, #0
 123              	.LVL9:
 124 000a FFF7FEFF 		bl	CyHalt
 125              	.LVL10:
 126              	.L10:
 320:Generated_Source\PSoC5/BoostConv_1.c ****         }
 321:Generated_Source\PSoC5/BoostConv_1.c ****     #endif /* CY_PSOC5LP */
 322:Generated_Source\PSoC5/BoostConv_1.c **** 
 323:Generated_Source\PSoC5/BoostConv_1.c ****     enableInterrupts = CyEnterCriticalSection();
 127              		.loc 1 323 0
 128 000e FFF7FEFF 		bl	CyEnterCriticalSection
 129              	.LVL11:
 324:Generated_Source\PSoC5/BoostConv_1.c **** 
 325:Generated_Source\PSoC5/BoostConv_1.c ****     /* Accessing Boost block registers in read mode has speed limitation and
 326:Generated_Source\PSoC5/BoostConv_1.c ****      * requires two consecutive reads of registers resides in Boost hard-IP block
 327:Generated_Source\PSoC5/BoostConv_1.c ****      */
ARM GAS  C:\Users\LUCASI~1\AppData\Local\Temp\ccORfloU.s 			page 9


 328:Generated_Source\PSoC5/BoostConv_1.c ****     (void) BoostConv_1_CONTROL_REG0;
 130              		.loc 1 328 0
 131 0012 064B     		ldr	r3, .L12
 132 0014 1A78     		ldrb	r2, [r3]	@ zero_extendqisi2
 329:Generated_Source\PSoC5/BoostConv_1.c ****     tmp = BoostConv_1_CONTROL_REG0;
 133              		.loc 1 329 0
 134 0016 1A78     		ldrb	r2, [r3]	@ zero_extendqisi2
 135              	.LVL12:
 330:Generated_Source\PSoC5/BoostConv_1.c **** 
 331:Generated_Source\PSoC5/BoostConv_1.c ****     BoostConv_1_CONTROL_REG0 = (tmp & ((uint8) (~BoostConv_1_MODE_MASK))) |
 332:Generated_Source\PSoC5/BoostConv_1.c ****                                     (BoostConv_1_MODE_MASK & ((uint8) (mode << BoostConv_1_MODE_SHI
 136              		.loc 1 332 0
 137 0018 6401     		lsls	r4, r4, #5
 331:Generated_Source\PSoC5/BoostConv_1.c ****                                     (BoostConv_1_MODE_MASK & ((uint8) (mode << BoostConv_1_MODE_SHI
 138              		.loc 1 331 0
 139 001a 02F09F02 		and	r2, r2, #159
 140              	.LVL13:
 141 001e 04F06004 		and	r4, r4, #96
 142 0022 1443     		orrs	r4, r4, r2
 143 0024 1C70     		strb	r4, [r3]
 333:Generated_Source\PSoC5/BoostConv_1.c **** 
 334:Generated_Source\PSoC5/BoostConv_1.c ****     CyExitCriticalSection(enableInterrupts);
 144              		.loc 1 334 0
 145 0026 FFF7FEFF 		bl	CyExitCriticalSection
 146              	.LVL14:
 147 002a 10BD     		pop	{r4, pc}
 148              	.L13:
 149              		.align	2
 150              	.L12:
 151 002c 20430040 		.word	1073759008
 152              		.cfi_endproc
 153              	.LFE5:
 154              		.size	BoostConv_1_SetMode, .-BoostConv_1_SetMode
 155              		.section	.text.BoostConv_1_SelVoltage,"ax",%progbits
 156              		.align	2
 157              		.global	BoostConv_1_SelVoltage
 158              		.thumb
 159              		.thumb_func
 160              		.type	BoostConv_1_SelVoltage, %function
 161              	BoostConv_1_SelVoltage:
 162              	.LFB6:
 335:Generated_Source\PSoC5/BoostConv_1.c **** 
 336:Generated_Source\PSoC5/BoostConv_1.c ****     #if (CY_PSOC3)
 337:Generated_Source\PSoC5/BoostConv_1.c ****         if (mode == BoostConv_1_BOOSTMODE_STANDBY)
 338:Generated_Source\PSoC5/BoostConv_1.c ****         {
 339:Generated_Source\PSoC5/BoostConv_1.c ****            BoostConv_1_SelFreq(BoostConv_1__SWITCH_FREQ_32KHZ);
 340:Generated_Source\PSoC5/BoostConv_1.c ****            BoostConv_1_EnableAutoThump();
 341:Generated_Source\PSoC5/BoostConv_1.c ****         }
 342:Generated_Source\PSoC5/BoostConv_1.c ****         else /* mode == BoostConv_1_BOOSTMODE_ACTIVE */
 343:Generated_Source\PSoC5/BoostConv_1.c ****         {
 344:Generated_Source\PSoC5/BoostConv_1.c ****             BoostConv_1_SelFreq(BoostConv_1__SWITCH_FREQ_400KHZ);
 345:Generated_Source\PSoC5/BoostConv_1.c ****             BoostConv_1_DisableAutoThump();
 346:Generated_Source\PSoC5/BoostConv_1.c ****         }
 347:Generated_Source\PSoC5/BoostConv_1.c ****     #endif /* CY_PSOC3 */
 348:Generated_Source\PSoC5/BoostConv_1.c **** }
 349:Generated_Source\PSoC5/BoostConv_1.c **** 
 350:Generated_Source\PSoC5/BoostConv_1.c **** 
ARM GAS  C:\Users\LUCASI~1\AppData\Local\Temp\ccORfloU.s 			page 10


 351:Generated_Source\PSoC5/BoostConv_1.c **** /*******************************************************************************
 352:Generated_Source\PSoC5/BoostConv_1.c **** * Function Name: BoostConv_1_SelVoltage
 353:Generated_Source\PSoC5/BoostConv_1.c **** ********************************************************************************
 354:Generated_Source\PSoC5/BoostConv_1.c **** *
 355:Generated_Source\PSoC5/BoostConv_1.c **** * Summary:
 356:Generated_Source\PSoC5/BoostConv_1.c **** *  This function selects the target output voltage the boost converter will
 357:Generated_Source\PSoC5/BoostConv_1.c **** *  maintain.
 358:Generated_Source\PSoC5/BoostConv_1.c **** *
 359:Generated_Source\PSoC5/BoostConv_1.c **** * Parameters:
 360:Generated_Source\PSoC5/BoostConv_1.c **** *  voltage: Desired output voltage.
 361:Generated_Source\PSoC5/BoostConv_1.c **** *
 362:Generated_Source\PSoC5/BoostConv_1.c **** * Return:
 363:Generated_Source\PSoC5/BoostConv_1.c **** *  None.
 364:Generated_Source\PSoC5/BoostConv_1.c **** *
 365:Generated_Source\PSoC5/BoostConv_1.c **** *******************************************************************************/
 366:Generated_Source\PSoC5/BoostConv_1.c **** void BoostConv_1_SelVoltage(uint8 voltage) 
 367:Generated_Source\PSoC5/BoostConv_1.c **** {
 163              		.loc 1 367 0
 164              		.cfi_startproc
 165              		@ args = 0, pretend = 0, frame = 0
 166              		@ frame_needed = 0, uses_anonymous_args = 0
 167              	.LVL15:
 168 0000 10B5     		push	{r4, lr}
 169              		.cfi_def_cfa_offset 8
 170              		.cfi_offset 4, -8
 171              		.cfi_offset 14, -4
 172 0002 0446     		mov	r4, r0
 368:Generated_Source\PSoC5/BoostConv_1.c ****     uint8 tmp;
 369:Generated_Source\PSoC5/BoostConv_1.c ****     uint8 enableInterrupts;
 370:Generated_Source\PSoC5/BoostConv_1.c **** 
 371:Generated_Source\PSoC5/BoostConv_1.c ****     enableInterrupts = CyEnterCriticalSection();
 173              		.loc 1 371 0
 174 0004 FFF7FEFF 		bl	CyEnterCriticalSection
 175              	.LVL16:
 372:Generated_Source\PSoC5/BoostConv_1.c **** 
 373:Generated_Source\PSoC5/BoostConv_1.c ****     /* Accessing Boost block registers in read mode has speed limitation and
 374:Generated_Source\PSoC5/BoostConv_1.c ****      * requires two consecutive reads of registers resides in Boost hard-IP block
 375:Generated_Source\PSoC5/BoostConv_1.c ****      */
 376:Generated_Source\PSoC5/BoostConv_1.c ****     (void) BoostConv_1_CONTROL_REG0;
 176              		.loc 1 376 0
 177 0008 054B     		ldr	r3, .L16
 178 000a 1A78     		ldrb	r2, [r3]	@ zero_extendqisi2
 377:Generated_Source\PSoC5/BoostConv_1.c ****     tmp = BoostConv_1_CONTROL_REG0;
 179              		.loc 1 377 0
 180 000c 1A78     		ldrb	r2, [r3]	@ zero_extendqisi2
 181              	.LVL17:
 378:Generated_Source\PSoC5/BoostConv_1.c **** 
 379:Generated_Source\PSoC5/BoostConv_1.c ****     BoostConv_1_CONTROL_REG0 = (tmp & ((uint8) (~BoostConv_1_VOLTAGE_MASK))) |
 182              		.loc 1 379 0
 183 000e 02F0E002 		and	r2, r2, #224
 184              	.LVL18:
 185 0012 04F01F04 		and	r4, r4, #31
 186 0016 1443     		orrs	r4, r4, r2
 187 0018 1C70     		strb	r4, [r3]
 380:Generated_Source\PSoC5/BoostConv_1.c ****                                             (BoostConv_1_VOLTAGE_MASK & voltage);
 381:Generated_Source\PSoC5/BoostConv_1.c **** 
 382:Generated_Source\PSoC5/BoostConv_1.c ****     CyExitCriticalSection(enableInterrupts);
ARM GAS  C:\Users\LUCASI~1\AppData\Local\Temp\ccORfloU.s 			page 11


 188              		.loc 1 382 0
 189 001a FFF7FEFF 		bl	CyExitCriticalSection
 190              	.LVL19:
 191 001e 10BD     		pop	{r4, pc}
 192              	.L17:
 193              		.align	2
 194              	.L16:
 195 0020 20430040 		.word	1073759008
 196              		.cfi_endproc
 197              	.LFE6:
 198              		.size	BoostConv_1_SelVoltage, .-BoostConv_1_SelVoltage
 199              		.section	.text.BoostConv_1_Init,"ax",%progbits
 200              		.align	2
 201              		.global	BoostConv_1_Init
 202              		.thumb
 203              		.thumb_func
 204              		.type	BoostConv_1_Init, %function
 205              	BoostConv_1_Init:
 206              	.LFB0:
  40:Generated_Source\PSoC5/BoostConv_1.c ****     uint8 tmp;
 207              		.loc 1 40 0
 208              		.cfi_startproc
 209              		@ args = 0, pretend = 0, frame = 0
 210              		@ frame_needed = 0, uses_anonymous_args = 0
 211 0000 08B5     		push	{r3, lr}
 212              		.cfi_def_cfa_offset 8
 213              		.cfi_offset 3, -8
 214              		.cfi_offset 14, -4
  44:Generated_Source\PSoC5/BoostConv_1.c **** 
 215              		.loc 1 44 0
 216 0002 FFF7FEFF 		bl	CyEnterCriticalSection
 217              	.LVL20:
  59:Generated_Source\PSoC5/BoostConv_1.c ****     tmp = BoostConv_1_CONTROL_REG2;
 218              		.loc 1 59 0
 219 0006 0B4B     		ldr	r3, .L20
 220 0008 1A78     		ldrb	r2, [r3]	@ zero_extendqisi2
  60:Generated_Source\PSoC5/BoostConv_1.c **** 
 221              		.loc 1 60 0
 222 000a 1A78     		ldrb	r2, [r3]	@ zero_extendqisi2
 223              	.LVL21:
  65:Generated_Source\PSoC5/BoostConv_1.c ****     #endif /* (0u != BoostConv_1_DISABLE_AUTO_BATTERY) */
 224              		.loc 1 65 0
 225 000c 02F0FD02 		and	r2, r2, #253
 226              	.LVL22:
 227 0010 1A70     		strb	r2, [r3]
  68:Generated_Source\PSoC5/BoostConv_1.c **** 
 228              		.loc 1 68 0
 229 0012 FFF7FEFF 		bl	CyExitCriticalSection
 230              	.LVL23:
  76:Generated_Source\PSoC5/BoostConv_1.c ****         tmp = BoostConv_1_CONTROL_REG1;
 231              		.loc 1 76 0
 232 0016 084A     		ldr	r2, .L20+4
 233 0018 1378     		ldrb	r3, [r2]	@ zero_extendqisi2
  77:Generated_Source\PSoC5/BoostConv_1.c **** 
 234              		.loc 1 77 0
 235 001a 1378     		ldrb	r3, [r2]	@ zero_extendqisi2
 236              	.LVL24:
ARM GAS  C:\Users\LUCASI~1\AppData\Local\Temp\ccORfloU.s 			page 12


  79:Generated_Source\PSoC5/BoostConv_1.c ****                                                          BoostConv_1__SWITCH_FREQ_400KHZ;
 237              		.loc 1 79 0
 238 001c 03F0FC03 		and	r3, r3, #252
 239              	.LVL25:
 240 0020 43F00103 		orr	r3, r3, #1
 241 0024 1370     		strb	r3, [r2]
  83:Generated_Source\PSoC5/BoostConv_1.c ****     BoostConv_1_SetMode(BoostConv_1_BOOSTMODE_ACTIVE);
 242              		.loc 1 83 0
 243 0026 1A20     		movs	r0, #26
 244 0028 FFF7FEFF 		bl	BoostConv_1_SelVoltage
 245              	.LVL26:
  84:Generated_Source\PSoC5/BoostConv_1.c **** }
 246              		.loc 1 84 0
 247 002c 0320     		movs	r0, #3
 248 002e FFF7FEFF 		bl	BoostConv_1_SetMode
 249              	.LVL27:
 250 0032 08BD     		pop	{r3, pc}
 251              	.L21:
 252              		.align	2
 253              	.L20:
 254 0034 22430040 		.word	1073759010
 255 0038 21430040 		.word	1073759009
 256              		.cfi_endproc
 257              	.LFE0:
 258              		.size	BoostConv_1_Init, .-BoostConv_1_Init
 259              		.section	.text.BoostConv_1_Stop,"ax",%progbits
 260              		.align	2
 261              		.global	BoostConv_1_Stop
 262              		.thumb
 263              		.thumb_func
 264              		.type	BoostConv_1_Stop, %function
 265              	BoostConv_1_Stop:
 266              	.LFB2:
 182:Generated_Source\PSoC5/BoostConv_1.c ****     uint8 tmp;
 267              		.loc 1 182 0
 268              		.cfi_startproc
 269              		@ args = 0, pretend = 0, frame = 0
 270              		@ frame_needed = 0, uses_anonymous_args = 0
 271 0000 08B5     		push	{r3, lr}
 272              		.cfi_def_cfa_offset 8
 273              		.cfi_offset 3, -8
 274              		.cfi_offset 14, -4
 186:Generated_Source\PSoC5/BoostConv_1.c **** 
 275              		.loc 1 186 0
 276 0002 FFF7FEFF 		bl	CyEnterCriticalSection
 277              	.LVL28:
 191:Generated_Source\PSoC5/BoostConv_1.c ****     tmp = BoostConv_1_CONTROL_REG0;
 278              		.loc 1 191 0
 279 0006 0B4B     		ldr	r3, .L24
 280 0008 1A78     		ldrb	r2, [r3]	@ zero_extendqisi2
 192:Generated_Source\PSoC5/BoostConv_1.c **** 
 281              		.loc 1 192 0
 282 000a 1B78     		ldrb	r3, [r3]	@ zero_extendqisi2
 283 000c DBB2     		uxtb	r3, r3
 284              	.LVL29:
 194:Generated_Source\PSoC5/BoostConv_1.c ****     BoostConv_1_backup.selVoltage = tmp & BoostConv_1_VOLTAGE_MASK;
 285              		.loc 1 194 0
ARM GAS  C:\Users\LUCASI~1\AppData\Local\Temp\ccORfloU.s 			page 13


 286 000e 0A4A     		ldr	r2, .L24+4
 287 0010 C3F34111 		ubfx	r1, r3, #5, #2
 288 0014 5170     		strb	r1, [r2, #1]
 195:Generated_Source\PSoC5/BoostConv_1.c **** 
 289              		.loc 1 195 0
 290 0016 03F01F03 		and	r3, r3, #31
 291              	.LVL30:
 292 001a 1370     		strb	r3, [r2]
 197:Generated_Source\PSoC5/BoostConv_1.c **** 
 293              		.loc 1 197 0
 294 001c FFF7FEFF 		bl	CyExitCriticalSection
 295              	.LVL31:
 199:Generated_Source\PSoC5/BoostConv_1.c ****     #if (CY_PSOC3)
 296              		.loc 1 199 0
 297 0020 0020     		movs	r0, #0
 298 0022 FFF7FEFF 		bl	BoostConv_1_SelVoltage
 299              	.LVL32:
 204:Generated_Source\PSoC5/BoostConv_1.c ****     #endif /* CY_PSOC5LP */
 300              		.loc 1 204 0
 301 0026 0020     		movs	r0, #0
 302 0028 FFF7FEFF 		bl	BoostConv_1_SetMode
 303              	.LVL33:
 206:Generated_Source\PSoC5/BoostConv_1.c **** }
 304              		.loc 1 206 0
 305 002c FFF7FEFF 		bl	BoostConv_1_Disable
 306              	.LVL34:
 307 0030 08BD     		pop	{r3, pc}
 308              	.L25:
 309 0032 00BF     		.align	2
 310              	.L24:
 311 0034 20430040 		.word	1073759008
 312 0038 00000000 		.word	.LANCHOR0
 313              		.cfi_endproc
 314              	.LFE2:
 315              		.size	BoostConv_1_Stop, .-BoostConv_1_Stop
 316              		.section	.text.BoostConv_1_ManualThump,"ax",%progbits
 317              		.align	2
 318              		.global	BoostConv_1_ManualThump
 319              		.thumb
 320              		.thumb_func
 321              		.type	BoostConv_1_ManualThump, %function
 322              	BoostConv_1_ManualThump:
 323              	.LFB7:
 383:Generated_Source\PSoC5/BoostConv_1.c **** }
 384:Generated_Source\PSoC5/BoostConv_1.c **** 
 385:Generated_Source\PSoC5/BoostConv_1.c **** 
 386:Generated_Source\PSoC5/BoostConv_1.c **** #if (CY_PSOC3)
 387:Generated_Source\PSoC5/BoostConv_1.c **** 
 388:Generated_Source\PSoC5/BoostConv_1.c ****     /*******************************************************************************
 389:Generated_Source\PSoC5/BoostConv_1.c ****     * Function Name: BoostConv_1_SelFreq
 390:Generated_Source\PSoC5/BoostConv_1.c ****     ********************************************************************************
 391:Generated_Source\PSoC5/BoostConv_1.c ****     *
 392:Generated_Source\PSoC5/BoostConv_1.c ****     * Summary:
 393:Generated_Source\PSoC5/BoostConv_1.c ****     *  This function sets the frequency to one of the 2 possible values:
 394:Generated_Source\PSoC5/BoostConv_1.c ****     *  400kHz (which is generated internal to the Boost Converter block with a
 395:Generated_Source\PSoC5/BoostConv_1.c ****     *  dedicated oscillator) or 32kHz (which comes from the chips ECO-32kHz or
 396:Generated_Source\PSoC5/BoostConv_1.c ****     *  ILO-32kHz). The 32kHz frequency is only applicable for PSoC 3.
ARM GAS  C:\Users\LUCASI~1\AppData\Local\Temp\ccORfloU.s 			page 14


 397:Generated_Source\PSoC5/BoostConv_1.c ****     *
 398:Generated_Source\PSoC5/BoostConv_1.c ****     * Parameters:
 399:Generated_Source\PSoC5/BoostConv_1.c ****     *  frequency: Desired switching frequency.
 400:Generated_Source\PSoC5/BoostConv_1.c ****     *
 401:Generated_Source\PSoC5/BoostConv_1.c ****     * Return:
 402:Generated_Source\PSoC5/BoostConv_1.c ****     *  None.
 403:Generated_Source\PSoC5/BoostConv_1.c ****     *
 404:Generated_Source\PSoC5/BoostConv_1.c ****     *******************************************************************************/
 405:Generated_Source\PSoC5/BoostConv_1.c ****     void BoostConv_1_SelFreq(uint8 frequency) 
 406:Generated_Source\PSoC5/BoostConv_1.c ****     {
 407:Generated_Source\PSoC5/BoostConv_1.c ****         uint8 tmp;
 408:Generated_Source\PSoC5/BoostConv_1.c ****         uint8 enableInterrupts;
 409:Generated_Source\PSoC5/BoostConv_1.c **** 
 410:Generated_Source\PSoC5/BoostConv_1.c ****         enableInterrupts = CyEnterCriticalSection();
 411:Generated_Source\PSoC5/BoostConv_1.c **** 
 412:Generated_Source\PSoC5/BoostConv_1.c ****         /* Accessing Boost block registers in read mode has speed limitation and
 413:Generated_Source\PSoC5/BoostConv_1.c ****          * requires two consecutive reads of registers resides in Boost hard-IP block
 414:Generated_Source\PSoC5/BoostConv_1.c ****          */
 415:Generated_Source\PSoC5/BoostConv_1.c ****         (void) BoostConv_1_CONTROL_REG1;
 416:Generated_Source\PSoC5/BoostConv_1.c ****         tmp = BoostConv_1_CONTROL_REG1;
 417:Generated_Source\PSoC5/BoostConv_1.c **** 
 418:Generated_Source\PSoC5/BoostConv_1.c ****         BoostConv_1_CONTROL_REG1 = (tmp & ((uint8) (~BoostConv_1_FREQ_MASK))) |
 419:Generated_Source\PSoC5/BoostConv_1.c ****                                                 (BoostConv_1_FREQ_MASK & frequency);
 420:Generated_Source\PSoC5/BoostConv_1.c **** 
 421:Generated_Source\PSoC5/BoostConv_1.c ****         CyExitCriticalSection(enableInterrupts);
 422:Generated_Source\PSoC5/BoostConv_1.c ****     }
 423:Generated_Source\PSoC5/BoostConv_1.c **** 
 424:Generated_Source\PSoC5/BoostConv_1.c **** 
 425:Generated_Source\PSoC5/BoostConv_1.c ****     /*******************************************************************************
 426:Generated_Source\PSoC5/BoostConv_1.c ****     * Function Name: BoostConv_1_SelExtClk
 427:Generated_Source\PSoC5/BoostConv_1.c ****     ********************************************************************************
 428:Generated_Source\PSoC5/BoostConv_1.c ****     *
 429:Generated_Source\PSoC5/BoostConv_1.c ****     * Summary:
 430:Generated_Source\PSoC5/BoostConv_1.c ****     *  This function sets the source of 32kHz frequency: the chips ECO-32kHz
 431:Generated_Source\PSoC5/BoostConv_1.c ****     *  or ILO-32kHz.
 432:Generated_Source\PSoC5/BoostConv_1.c ****     *
 433:Generated_Source\PSoC5/BoostConv_1.c ****     * Parameters:
 434:Generated_Source\PSoC5/BoostConv_1.c ****     *  source: source of 32kHz frequency.
 435:Generated_Source\PSoC5/BoostConv_1.c ****     *
 436:Generated_Source\PSoC5/BoostConv_1.c ****     * Return:
 437:Generated_Source\PSoC5/BoostConv_1.c ****     *  None.
 438:Generated_Source\PSoC5/BoostConv_1.c ****     *
 439:Generated_Source\PSoC5/BoostConv_1.c ****     *******************************************************************************/
 440:Generated_Source\PSoC5/BoostConv_1.c ****     void  BoostConv_1_SelExtClk(uint8 source) 
 441:Generated_Source\PSoC5/BoostConv_1.c ****     {
 442:Generated_Source\PSoC5/BoostConv_1.c ****         BoostConv_1_CONTROL_REG4 = (BoostConv_1_CONTROL_REG4 & ((uint8) (~BoostConv_1_EXTCLK_SRC_MA
 443:Generated_Source\PSoC5/BoostConv_1.c ****                                         | (BoostConv_1_EXTCLK_SRC_MASK &
 444:Generated_Source\PSoC5/BoostConv_1.c ****                                         ((uint8) (source << BoostConv_1_EXTCLK_SRC_SHIFT)));
 445:Generated_Source\PSoC5/BoostConv_1.c ****     }
 446:Generated_Source\PSoC5/BoostConv_1.c **** 
 447:Generated_Source\PSoC5/BoostConv_1.c **** 
 448:Generated_Source\PSoC5/BoostConv_1.c ****     /*******************************************************************************
 449:Generated_Source\PSoC5/BoostConv_1.c ****     * Function Name: BoostConv_1_EnableAutoThump
 450:Generated_Source\PSoC5/BoostConv_1.c ****     ********************************************************************************
 451:Generated_Source\PSoC5/BoostConv_1.c ****     *
 452:Generated_Source\PSoC5/BoostConv_1.c ****     * Summary:
 453:Generated_Source\PSoC5/BoostConv_1.c ****     *  This function enables automatic thump mode (only available when Boost is
ARM GAS  C:\Users\LUCASI~1\AppData\Local\Temp\ccORfloU.s 			page 15


 454:Generated_Source\PSoC5/BoostConv_1.c ****     *  in Standby mode)
 455:Generated_Source\PSoC5/BoostConv_1.c ****     *
 456:Generated_Source\PSoC5/BoostConv_1.c ****     * Parameters:
 457:Generated_Source\PSoC5/BoostConv_1.c ****     *  None.
 458:Generated_Source\PSoC5/BoostConv_1.c ****     *
 459:Generated_Source\PSoC5/BoostConv_1.c ****     * Return:
 460:Generated_Source\PSoC5/BoostConv_1.c ****     *  None.
 461:Generated_Source\PSoC5/BoostConv_1.c ****     *
 462:Generated_Source\PSoC5/BoostConv_1.c ****     *******************************************************************************/
 463:Generated_Source\PSoC5/BoostConv_1.c ****     void BoostConv_1_EnableAutoThump(void) 
 464:Generated_Source\PSoC5/BoostConv_1.c ****     {
 465:Generated_Source\PSoC5/BoostConv_1.c ****         uint8 tmp;
 466:Generated_Source\PSoC5/BoostConv_1.c ****         uint8 enableInterrupts;
 467:Generated_Source\PSoC5/BoostConv_1.c **** 
 468:Generated_Source\PSoC5/BoostConv_1.c ****         enableInterrupts = CyEnterCriticalSection();
 469:Generated_Source\PSoC5/BoostConv_1.c **** 
 470:Generated_Source\PSoC5/BoostConv_1.c ****         /* Accessing Boost block registers in read mode has speed limitation and
 471:Generated_Source\PSoC5/BoostConv_1.c ****          * requires two consecutive reads of registers resides in Boost hard-IP block
 472:Generated_Source\PSoC5/BoostConv_1.c ****          */
 473:Generated_Source\PSoC5/BoostConv_1.c ****         (void) BoostConv_1_CONTROL_REG2;
 474:Generated_Source\PSoC5/BoostConv_1.c ****         tmp = BoostConv_1_CONTROL_REG2;
 475:Generated_Source\PSoC5/BoostConv_1.c **** 
 476:Generated_Source\PSoC5/BoostConv_1.c ****         BoostConv_1_CONTROL_REG2 = tmp | BoostConv_1_AUTO_THUMP_ENABLE;
 477:Generated_Source\PSoC5/BoostConv_1.c **** 
 478:Generated_Source\PSoC5/BoostConv_1.c ****         CyExitCriticalSection(enableInterrupts);
 479:Generated_Source\PSoC5/BoostConv_1.c ****     }
 480:Generated_Source\PSoC5/BoostConv_1.c **** 
 481:Generated_Source\PSoC5/BoostConv_1.c **** 
 482:Generated_Source\PSoC5/BoostConv_1.c ****     /*******************************************************************************
 483:Generated_Source\PSoC5/BoostConv_1.c ****     * Function Name: BoostConv_1_DisableAutoThump
 484:Generated_Source\PSoC5/BoostConv_1.c ****     ********************************************************************************
 485:Generated_Source\PSoC5/BoostConv_1.c ****     *
 486:Generated_Source\PSoC5/BoostConv_1.c ****     * Summary:
 487:Generated_Source\PSoC5/BoostConv_1.c ****     *  This function disables automatic thump mode (only available when Boost is
 488:Generated_Source\PSoC5/BoostConv_1.c ****     *  in Standby mode)
 489:Generated_Source\PSoC5/BoostConv_1.c ****     *
 490:Generated_Source\PSoC5/BoostConv_1.c ****     * Parameters:
 491:Generated_Source\PSoC5/BoostConv_1.c ****     *  None.
 492:Generated_Source\PSoC5/BoostConv_1.c ****     *
 493:Generated_Source\PSoC5/BoostConv_1.c ****     * Return:
 494:Generated_Source\PSoC5/BoostConv_1.c ****     *  None.
 495:Generated_Source\PSoC5/BoostConv_1.c ****     *
 496:Generated_Source\PSoC5/BoostConv_1.c ****     *******************************************************************************/
 497:Generated_Source\PSoC5/BoostConv_1.c ****     void BoostConv_1_DisableAutoThump(void) 
 498:Generated_Source\PSoC5/BoostConv_1.c ****     {
 499:Generated_Source\PSoC5/BoostConv_1.c ****         uint8 tmp;
 500:Generated_Source\PSoC5/BoostConv_1.c ****         uint8 enableInterrupts;
 501:Generated_Source\PSoC5/BoostConv_1.c **** 
 502:Generated_Source\PSoC5/BoostConv_1.c ****         enableInterrupts = CyEnterCriticalSection();
 503:Generated_Source\PSoC5/BoostConv_1.c **** 
 504:Generated_Source\PSoC5/BoostConv_1.c ****         /* Accessing Boost block registers in read mode has speed limitation and
 505:Generated_Source\PSoC5/BoostConv_1.c ****          * requires two consecutive reads of registers resides in Boost hard-IP block
 506:Generated_Source\PSoC5/BoostConv_1.c ****          */
 507:Generated_Source\PSoC5/BoostConv_1.c ****         (void) BoostConv_1_CONTROL_REG2;
 508:Generated_Source\PSoC5/BoostConv_1.c ****         tmp = BoostConv_1_CONTROL_REG2;
 509:Generated_Source\PSoC5/BoostConv_1.c **** 
 510:Generated_Source\PSoC5/BoostConv_1.c ****         BoostConv_1_CONTROL_REG2 = tmp & ((uint8) (~BoostConv_1_AUTO_THUMP_ENABLE));
ARM GAS  C:\Users\LUCASI~1\AppData\Local\Temp\ccORfloU.s 			page 16


 511:Generated_Source\PSoC5/BoostConv_1.c **** 
 512:Generated_Source\PSoC5/BoostConv_1.c ****         CyExitCriticalSection(enableInterrupts);
 513:Generated_Source\PSoC5/BoostConv_1.c ****     }
 514:Generated_Source\PSoC5/BoostConv_1.c **** 
 515:Generated_Source\PSoC5/BoostConv_1.c **** #endif /* CY_PSOC3 */
 516:Generated_Source\PSoC5/BoostConv_1.c **** 
 517:Generated_Source\PSoC5/BoostConv_1.c **** 
 518:Generated_Source\PSoC5/BoostConv_1.c **** /*******************************************************************************
 519:Generated_Source\PSoC5/BoostConv_1.c **** * Function Name: BoostConv_1_ManualThump
 520:Generated_Source\PSoC5/BoostConv_1.c **** ********************************************************************************
 521:Generated_Source\PSoC5/BoostConv_1.c **** *
 522:Generated_Source\PSoC5/BoostConv_1.c **** * Summary:
 523:Generated_Source\PSoC5/BoostConv_1.c **** *  This function forces a single pulse of the boost converter switch
 524:Generated_Source\PSoC5/BoostConv_1.c **** *  transistors.
 525:Generated_Source\PSoC5/BoostConv_1.c **** *
 526:Generated_Source\PSoC5/BoostConv_1.c **** * Parameters:
 527:Generated_Source\PSoC5/BoostConv_1.c **** *  None.
 528:Generated_Source\PSoC5/BoostConv_1.c **** *
 529:Generated_Source\PSoC5/BoostConv_1.c **** * Return:
 530:Generated_Source\PSoC5/BoostConv_1.c **** *  None.
 531:Generated_Source\PSoC5/BoostConv_1.c **** *
 532:Generated_Source\PSoC5/BoostConv_1.c **** * Theory:
 533:Generated_Source\PSoC5/BoostConv_1.c **** *  Thump - produces one ~500ns pulse when set. Must be reset to 0 before another
 534:Generated_Source\PSoC5/BoostConv_1.c **** *  pulse can be generated. It should not re-set the bit until after the 500ns
 535:Generated_Source\PSoC5/BoostConv_1.c **** *  pulse has expired. Used for discrete switch control.
 536:Generated_Source\PSoC5/BoostConv_1.c **** *
 537:Generated_Source\PSoC5/BoostConv_1.c **** * Side Effects:
 538:Generated_Source\PSoC5/BoostConv_1.c **** *  This routine writes a "0" followed by a "1" to the bit 7 "thump" bit in the
 539:Generated_Source\PSoC5/BoostConv_1.c **** *  boost block BOOST_CR0 register.
 540:Generated_Source\PSoC5/BoostConv_1.c **** *
 541:Generated_Source\PSoC5/BoostConv_1.c **** *******************************************************************************/
 542:Generated_Source\PSoC5/BoostConv_1.c **** void BoostConv_1_ManualThump(void) 
 543:Generated_Source\PSoC5/BoostConv_1.c **** {
 324              		.loc 1 543 0
 325              		.cfi_startproc
 326              		@ args = 0, pretend = 0, frame = 0
 327              		@ frame_needed = 0, uses_anonymous_args = 0
 328 0000 70B5     		push	{r4, r5, r6, lr}
 329              		.cfi_def_cfa_offset 16
 330              		.cfi_offset 4, -16
 331              		.cfi_offset 5, -12
 332              		.cfi_offset 6, -8
 333              		.cfi_offset 14, -4
 544:Generated_Source\PSoC5/BoostConv_1.c ****     uint8 tmp;
 545:Generated_Source\PSoC5/BoostConv_1.c ****     uint8 enableInterrupts;
 546:Generated_Source\PSoC5/BoostConv_1.c **** 
 547:Generated_Source\PSoC5/BoostConv_1.c ****     enableInterrupts = CyEnterCriticalSection();
 334              		.loc 1 547 0
 335 0002 FFF7FEFF 		bl	CyEnterCriticalSection
 336              	.LVL35:
 337 0006 0646     		mov	r6, r0
 338              	.LVL36:
 548:Generated_Source\PSoC5/BoostConv_1.c **** 
 549:Generated_Source\PSoC5/BoostConv_1.c ****     /* Accessing Boost block registers in read mode has speed limitation  and
 550:Generated_Source\PSoC5/BoostConv_1.c ****      * requires two consecutive reads of registers resides in Boost hard-IP block
 551:Generated_Source\PSoC5/BoostConv_1.c ****      */
 552:Generated_Source\PSoC5/BoostConv_1.c ****     (void) BoostConv_1_CONTROL_REG0;
ARM GAS  C:\Users\LUCASI~1\AppData\Local\Temp\ccORfloU.s 			page 17


 339              		.loc 1 552 0
 340 0008 084D     		ldr	r5, .L28
 341 000a 2B78     		ldrb	r3, [r5]	@ zero_extendqisi2
 553:Generated_Source\PSoC5/BoostConv_1.c ****     tmp = BoostConv_1_CONTROL_REG0;
 342              		.loc 1 553 0
 343 000c 2C78     		ldrb	r4, [r5]	@ zero_extendqisi2
 344 000e E4B2     		uxtb	r4, r4
 345              	.LVL37:
 554:Generated_Source\PSoC5/BoostConv_1.c **** 
 555:Generated_Source\PSoC5/BoostConv_1.c ****     BoostConv_1_CONTROL_REG0 = tmp | BoostConv_1_MANUAL_THUMP_ENABLE;
 346              		.loc 1 555 0
 347 0010 44F00103 		orr	r3, r4, #1
 348 0014 2B70     		strb	r3, [r5]
 556:Generated_Source\PSoC5/BoostConv_1.c ****     CyDelayUs(1u);
 349              		.loc 1 556 0
 350 0016 0120     		movs	r0, #1
 351 0018 FFF7FEFF 		bl	CyDelayUs
 352              	.LVL38:
 557:Generated_Source\PSoC5/BoostConv_1.c ****     BoostConv_1_CONTROL_REG0 = tmp & ((uint8) (~BoostConv_1_MANUAL_THUMP_ENABLE));
 353              		.loc 1 557 0
 354 001c 04F0FE04 		and	r4, r4, #254
 355              	.LVL39:
 356 0020 2C70     		strb	r4, [r5]
 558:Generated_Source\PSoC5/BoostConv_1.c **** 
 559:Generated_Source\PSoC5/BoostConv_1.c ****     CyExitCriticalSection(enableInterrupts);
 357              		.loc 1 559 0
 358 0022 3046     		mov	r0, r6
 359 0024 FFF7FEFF 		bl	CyExitCriticalSection
 360              	.LVL40:
 361 0028 70BD     		pop	{r4, r5, r6, pc}
 362              	.LVL41:
 363              	.L29:
 364 002a 00BF     		.align	2
 365              	.L28:
 366 002c 20430040 		.word	1073759008
 367              		.cfi_endproc
 368              	.LFE7:
 369              		.size	BoostConv_1_ManualThump, .-BoostConv_1_ManualThump
 370              		.section	.text.BoostConv_1_ReadStatus,"ax",%progbits
 371              		.align	2
 372              		.global	BoostConv_1_ReadStatus
 373              		.thumb
 374              		.thumb_func
 375              		.type	BoostConv_1_ReadStatus, %function
 376              	BoostConv_1_ReadStatus:
 377              	.LFB8:
 560:Generated_Source\PSoC5/BoostConv_1.c **** }
 561:Generated_Source\PSoC5/BoostConv_1.c **** 
 562:Generated_Source\PSoC5/BoostConv_1.c **** 
 563:Generated_Source\PSoC5/BoostConv_1.c **** /*******************************************************************************
 564:Generated_Source\PSoC5/BoostConv_1.c **** * Function Name: BoostConv_1_ReadStatus
 565:Generated_Source\PSoC5/BoostConv_1.c **** ********************************************************************************
 566:Generated_Source\PSoC5/BoostConv_1.c **** *
 567:Generated_Source\PSoC5/BoostConv_1.c **** * Summary:
 568:Generated_Source\PSoC5/BoostConv_1.c **** *  This function returns the contents of the boost block status register.
 569:Generated_Source\PSoC5/BoostConv_1.c **** *
 570:Generated_Source\PSoC5/BoostConv_1.c **** * Parameters:
ARM GAS  C:\Users\LUCASI~1\AppData\Local\Temp\ccORfloU.s 			page 18


 571:Generated_Source\PSoC5/BoostConv_1.c **** *  None.
 572:Generated_Source\PSoC5/BoostConv_1.c **** *
 573:Generated_Source\PSoC5/BoostConv_1.c **** * Return:
 574:Generated_Source\PSoC5/BoostConv_1.c **** *  Boost block status register.
 575:Generated_Source\PSoC5/BoostConv_1.c **** *
 576:Generated_Source\PSoC5/BoostConv_1.c **** *******************************************************************************/
 577:Generated_Source\PSoC5/BoostConv_1.c **** uint8 BoostConv_1_ReadStatus(void) 
 578:Generated_Source\PSoC5/BoostConv_1.c **** {
 378              		.loc 1 578 0
 379              		.cfi_startproc
 380              		@ args = 0, pretend = 0, frame = 0
 381              		@ frame_needed = 0, uses_anonymous_args = 0
 382 0000 10B5     		push	{r4, lr}
 383              		.cfi_def_cfa_offset 8
 384              		.cfi_offset 4, -8
 385              		.cfi_offset 14, -4
 579:Generated_Source\PSoC5/BoostConv_1.c ****     uint8 tmp;
 580:Generated_Source\PSoC5/BoostConv_1.c ****     uint8 enableInterrupts;
 581:Generated_Source\PSoC5/BoostConv_1.c **** 
 582:Generated_Source\PSoC5/BoostConv_1.c ****     enableInterrupts = CyEnterCriticalSection();
 386              		.loc 1 582 0
 387 0002 FFF7FEFF 		bl	CyEnterCriticalSection
 388              	.LVL42:
 583:Generated_Source\PSoC5/BoostConv_1.c **** 
 584:Generated_Source\PSoC5/BoostConv_1.c ****     /* Accessing Boost block registers in read mode has speed limitation and
 585:Generated_Source\PSoC5/BoostConv_1.c ****      * requires two consecutive reads of registers resides in Boost hard-IP block
 586:Generated_Source\PSoC5/BoostConv_1.c ****      */
 587:Generated_Source\PSoC5/BoostConv_1.c ****     (void) BoostConv_1_STATUS_REG;
 389              		.loc 1 587 0
 390 0006 044B     		ldr	r3, .L32
 391 0008 1A78     		ldrb	r2, [r3]	@ zero_extendqisi2
 588:Generated_Source\PSoC5/BoostConv_1.c ****     tmp = BoostConv_1_STATUS_REG;
 392              		.loc 1 588 0
 393 000a 1C78     		ldrb	r4, [r3]	@ zero_extendqisi2
 394 000c E4B2     		uxtb	r4, r4
 395              	.LVL43:
 589:Generated_Source\PSoC5/BoostConv_1.c **** 
 590:Generated_Source\PSoC5/BoostConv_1.c ****     CyExitCriticalSection(enableInterrupts);
 396              		.loc 1 590 0
 397 000e FFF7FEFF 		bl	CyExitCriticalSection
 398              	.LVL44:
 591:Generated_Source\PSoC5/BoostConv_1.c **** 
 592:Generated_Source\PSoC5/BoostConv_1.c ****     return (tmp);
 593:Generated_Source\PSoC5/BoostConv_1.c **** }
 399              		.loc 1 593 0
 400 0012 2046     		mov	r0, r4
 401 0014 10BD     		pop	{r4, pc}
 402              	.LVL45:
 403              	.L33:
 404 0016 00BF     		.align	2
 405              	.L32:
 406 0018 24430040 		.word	1073759012
 407              		.cfi_endproc
 408              	.LFE8:
 409              		.size	BoostConv_1_ReadStatus, .-BoostConv_1_ReadStatus
 410              		.section	.text.BoostConv_1_Start,"ax",%progbits
 411              		.align	2
ARM GAS  C:\Users\LUCASI~1\AppData\Local\Temp\ccORfloU.s 			page 19


 412              		.global	BoostConv_1_Start
 413              		.thumb
 414              		.thumb_func
 415              		.type	BoostConv_1_Start, %function
 416              	BoostConv_1_Start:
 417              	.LFB1:
 120:Generated_Source\PSoC5/BoostConv_1.c ****     uint16 timeout = BoostConv_1_STARTUP_TIMEOUT;
 418              		.loc 1 120 0
 419              		.cfi_startproc
 420              		@ args = 0, pretend = 0, frame = 0
 421              		@ frame_needed = 0, uses_anonymous_args = 0
 422 0000 10B5     		push	{r4, lr}
 423              		.cfi_def_cfa_offset 8
 424              		.cfi_offset 4, -8
 425              		.cfi_offset 14, -4
 426              	.LVL46:
 121:Generated_Source\PSoC5/BoostConv_1.c ****     uint8 tmp;
 427              		.loc 1 121 0
 428 0002 42F21074 		movw	r4, #10000
 429              	.LVL47:
 430              	.L36:
 126:Generated_Source\PSoC5/BoostConv_1.c ****         tmp = BoostConv_1_ReadStatus();
 431              		.loc 1 126 0 discriminator 2
 432 0006 0120     		movs	r0, #1
 433 0008 FFF7FEFF 		bl	CyDelayUs
 434              	.LVL48:
 127:Generated_Source\PSoC5/BoostConv_1.c ****         timeout--;
 435              		.loc 1 127 0 discriminator 2
 436 000c FFF7FEFF 		bl	BoostConv_1_ReadStatus
 437              	.LVL49:
 128:Generated_Source\PSoC5/BoostConv_1.c **** 
 438              		.loc 1 128 0 discriminator 2
 439 0010 013C     		subs	r4, r4, #1
 440              	.LVL50:
 441 0012 A4B2     		uxth	r4, r4
 442              	.LVL51:
 130:Generated_Source\PSoC5/BoostConv_1.c **** 
 443              		.loc 1 130 0 discriminator 2
 444 0014 14B1     		cbz	r4, .L35
 130:Generated_Source\PSoC5/BoostConv_1.c **** 
 445              		.loc 1 130 0 is_stmt 0 discriminator 1
 446 0016 10F0800F 		tst	r0, #128
 447 001a F4D0     		beq	.L36
 448              	.L35:
 132:Generated_Source\PSoC5/BoostConv_1.c **** 
 449              		.loc 1 132 0 is_stmt 1
 450 001c FFF7FEFF 		bl	BoostConv_1_ReadStatus
 451              	.LVL52:
 134:Generated_Source\PSoC5/BoostConv_1.c ****     {
 452              		.loc 1 134 0
 453 0020 10F0800F 		tst	r0, #128
 454 0024 12D0     		beq	.L37
 136:Generated_Source\PSoC5/BoostConv_1.c ****         {
 455              		.loc 1 136 0
 456 0026 0B4B     		ldr	r3, .L42
 457 0028 1B78     		ldrb	r3, [r3]	@ zero_extendqisi2
 458 002a 2BB9     		cbnz	r3, .L38
ARM GAS  C:\Users\LUCASI~1\AppData\Local\Temp\ccORfloU.s 			page 20


 138:Generated_Source\PSoC5/BoostConv_1.c ****             BoostConv_1_initVar = 1u;
 459              		.loc 1 138 0
 460 002c FFF7FEFF 		bl	BoostConv_1_Init
 461              	.LVL53:
 139:Generated_Source\PSoC5/BoostConv_1.c ****         }
 462              		.loc 1 139 0
 463 0030 0122     		movs	r2, #1
 464 0032 084B     		ldr	r3, .L42
 465 0034 1A70     		strb	r2, [r3]
 466 0036 06E0     		b	.L39
 467              	.LVL54:
 468              	.L38:
 143:Generated_Source\PSoC5/BoostConv_1.c ****             BoostConv_1_SetMode(BoostConv_1_backup.mode);
 469              		.loc 1 143 0
 470 0038 074C     		ldr	r4, .L42+4
 471              	.LVL55:
 472 003a 2078     		ldrb	r0, [r4]	@ zero_extendqisi2
 473              	.LVL56:
 474 003c FFF7FEFF 		bl	BoostConv_1_SelVoltage
 475              	.LVL57:
 144:Generated_Source\PSoC5/BoostConv_1.c ****         }
 476              		.loc 1 144 0
 477 0040 6078     		ldrb	r0, [r4, #1]	@ zero_extendqisi2
 478 0042 FFF7FEFF 		bl	BoostConv_1_SetMode
 479              	.LVL58:
 480              	.L39:
 147:Generated_Source\PSoC5/BoostConv_1.c ****     }
 481              		.loc 1 147 0
 482 0046 FFF7FEFF 		bl	BoostConv_1_Enable
 483              	.LVL59:
 484 004a 10BD     		pop	{r4, pc}
 485              	.LVL60:
 486              	.L37:
 154:Generated_Source\PSoC5/BoostConv_1.c ****     }
 487              		.loc 1 154 0 discriminator 1
 488 004c 0020     		movs	r0, #0
 489              	.LVL61:
 490 004e FFF7FEFF 		bl	CyHalt
 491              	.LVL62:
 492 0052 10BD     		pop	{r4, pc}
 493              	.LVL63:
 494              	.L43:
 495              		.align	2
 496              	.L42:
 497 0054 00000000 		.word	.LANCHOR1
 498 0058 00000000 		.word	.LANCHOR0
 499              		.cfi_endproc
 500              	.LFE1:
 501              		.size	BoostConv_1_Start, .-BoostConv_1_Start
 502              		.section	.text.BoostConv_1_EnableInt,"ax",%progbits
 503              		.align	2
 504              		.global	BoostConv_1_EnableInt
 505              		.thumb
 506              		.thumb_func
 507              		.type	BoostConv_1_EnableInt, %function
 508              	BoostConv_1_EnableInt:
 509              	.LFB9:
ARM GAS  C:\Users\LUCASI~1\AppData\Local\Temp\ccORfloU.s 			page 21


 594:Generated_Source\PSoC5/BoostConv_1.c **** 
 595:Generated_Source\PSoC5/BoostConv_1.c **** 
 596:Generated_Source\PSoC5/BoostConv_1.c **** /*******************************************************************************
 597:Generated_Source\PSoC5/BoostConv_1.c **** * Function Name: BoostConv_1_EnableInt
 598:Generated_Source\PSoC5/BoostConv_1.c **** ********************************************************************************
 599:Generated_Source\PSoC5/BoostConv_1.c **** *
 600:Generated_Source\PSoC5/BoostConv_1.c **** * Summary:
 601:Generated_Source\PSoC5/BoostConv_1.c **** *  This function enables the Boost block Output Under-Voltage interrupt
 602:Generated_Source\PSoC5/BoostConv_1.c **** *  generation.
 603:Generated_Source\PSoC5/BoostConv_1.c **** *
 604:Generated_Source\PSoC5/BoostConv_1.c **** * Parameters:
 605:Generated_Source\PSoC5/BoostConv_1.c **** *  None.
 606:Generated_Source\PSoC5/BoostConv_1.c **** *
 607:Generated_Source\PSoC5/BoostConv_1.c **** * Return:
 608:Generated_Source\PSoC5/BoostConv_1.c **** *  None.
 609:Generated_Source\PSoC5/BoostConv_1.c **** *
 610:Generated_Source\PSoC5/BoostConv_1.c **** *******************************************************************************/
 611:Generated_Source\PSoC5/BoostConv_1.c **** void  BoostConv_1_EnableInt(void) 
 612:Generated_Source\PSoC5/BoostConv_1.c **** {
 510              		.loc 1 612 0
 511              		.cfi_startproc
 512              		@ args = 0, pretend = 0, frame = 0
 513              		@ frame_needed = 0, uses_anonymous_args = 0
 514              		@ link register save eliminated.
 613:Generated_Source\PSoC5/BoostConv_1.c ****     BoostConv_1_CONTROL_REG4 |= BoostConv_1_INT_ENABLE_MASK;
 515              		.loc 1 613 0
 516 0000 024A     		ldr	r2, .L45
 517 0002 1378     		ldrb	r3, [r2]	@ zero_extendqisi2
 518 0004 43F00103 		orr	r3, r3, #1
 519 0008 1370     		strb	r3, [r2]
 520 000a 7047     		bx	lr
 521              	.L46:
 522              		.align	2
 523              	.L45:
 524 000c 25430040 		.word	1073759013
 525              		.cfi_endproc
 526              	.LFE9:
 527              		.size	BoostConv_1_EnableInt, .-BoostConv_1_EnableInt
 528              		.section	.text.BoostConv_1_DisableInt,"ax",%progbits
 529              		.align	2
 530              		.global	BoostConv_1_DisableInt
 531              		.thumb
 532              		.thumb_func
 533              		.type	BoostConv_1_DisableInt, %function
 534              	BoostConv_1_DisableInt:
 535              	.LFB10:
 614:Generated_Source\PSoC5/BoostConv_1.c **** }
 615:Generated_Source\PSoC5/BoostConv_1.c **** 
 616:Generated_Source\PSoC5/BoostConv_1.c **** 
 617:Generated_Source\PSoC5/BoostConv_1.c **** /*******************************************************************************
 618:Generated_Source\PSoC5/BoostConv_1.c **** * Function Name: BoostConv_1_DisableInt
 619:Generated_Source\PSoC5/BoostConv_1.c **** ********************************************************************************
 620:Generated_Source\PSoC5/BoostConv_1.c **** *
 621:Generated_Source\PSoC5/BoostConv_1.c **** * Summary:
 622:Generated_Source\PSoC5/BoostConv_1.c **** *  This function disables the Boost block Output Under-Voltage interrupt
 623:Generated_Source\PSoC5/BoostConv_1.c **** *  generation.
 624:Generated_Source\PSoC5/BoostConv_1.c **** *
ARM GAS  C:\Users\LUCASI~1\AppData\Local\Temp\ccORfloU.s 			page 22


 625:Generated_Source\PSoC5/BoostConv_1.c **** * Parameters:
 626:Generated_Source\PSoC5/BoostConv_1.c **** *  None.
 627:Generated_Source\PSoC5/BoostConv_1.c **** *
 628:Generated_Source\PSoC5/BoostConv_1.c **** * Return:
 629:Generated_Source\PSoC5/BoostConv_1.c **** *  None.
 630:Generated_Source\PSoC5/BoostConv_1.c **** *
 631:Generated_Source\PSoC5/BoostConv_1.c **** *******************************************************************************/
 632:Generated_Source\PSoC5/BoostConv_1.c **** void  BoostConv_1_DisableInt(void) 
 633:Generated_Source\PSoC5/BoostConv_1.c **** {
 536              		.loc 1 633 0
 537              		.cfi_startproc
 538              		@ args = 0, pretend = 0, frame = 0
 539              		@ frame_needed = 0, uses_anonymous_args = 0
 540              		@ link register save eliminated.
 634:Generated_Source\PSoC5/BoostConv_1.c ****     BoostConv_1_CONTROL_REG4 &= (uint8) (~BoostConv_1_INT_ENABLE_MASK);
 541              		.loc 1 634 0
 542 0000 024A     		ldr	r2, .L48
 543 0002 1378     		ldrb	r3, [r2]	@ zero_extendqisi2
 544 0004 03F0FE03 		and	r3, r3, #254
 545 0008 1370     		strb	r3, [r2]
 546 000a 7047     		bx	lr
 547              	.L49:
 548              		.align	2
 549              	.L48:
 550 000c 25430040 		.word	1073759013
 551              		.cfi_endproc
 552              	.LFE10:
 553              		.size	BoostConv_1_DisableInt, .-BoostConv_1_DisableInt
 554              		.section	.text.BoostConv_1_ReadIntStatus,"ax",%progbits
 555              		.align	2
 556              		.global	BoostConv_1_ReadIntStatus
 557              		.thumb
 558              		.thumb_func
 559              		.type	BoostConv_1_ReadIntStatus, %function
 560              	BoostConv_1_ReadIntStatus:
 561              	.LFB11:
 635:Generated_Source\PSoC5/BoostConv_1.c **** }
 636:Generated_Source\PSoC5/BoostConv_1.c **** 
 637:Generated_Source\PSoC5/BoostConv_1.c **** 
 638:Generated_Source\PSoC5/BoostConv_1.c **** /*******************************************************************************
 639:Generated_Source\PSoC5/BoostConv_1.c **** * Function Name: BoostConv_1_ReadIntStatus
 640:Generated_Source\PSoC5/BoostConv_1.c **** ********************************************************************************
 641:Generated_Source\PSoC5/BoostConv_1.c **** *
 642:Generated_Source\PSoC5/BoostConv_1.c **** * Summary:
 643:Generated_Source\PSoC5/BoostConv_1.c **** *  This function returns the contents of the boost block interrupt status
 644:Generated_Source\PSoC5/BoostConv_1.c **** *  register.
 645:Generated_Source\PSoC5/BoostConv_1.c **** *
 646:Generated_Source\PSoC5/BoostConv_1.c **** * Parameters:
 647:Generated_Source\PSoC5/BoostConv_1.c **** *  None.
 648:Generated_Source\PSoC5/BoostConv_1.c **** *
 649:Generated_Source\PSoC5/BoostConv_1.c **** * Return:
 650:Generated_Source\PSoC5/BoostConv_1.c **** *  Boost interrupt status register.
 651:Generated_Source\PSoC5/BoostConv_1.c **** *
 652:Generated_Source\PSoC5/BoostConv_1.c **** *******************************************************************************/
 653:Generated_Source\PSoC5/BoostConv_1.c **** uint8 BoostConv_1_ReadIntStatus(void) 
 654:Generated_Source\PSoC5/BoostConv_1.c **** {
 562              		.loc 1 654 0
ARM GAS  C:\Users\LUCASI~1\AppData\Local\Temp\ccORfloU.s 			page 23


 563              		.cfi_startproc
 564              		@ args = 0, pretend = 0, frame = 0
 565              		@ frame_needed = 0, uses_anonymous_args = 0
 566              		@ link register save eliminated.
 655:Generated_Source\PSoC5/BoostConv_1.c ****     return (BoostConv_1_STATUS_REG2 & BoostConv_1_INT_ENABLE_MASK);
 567              		.loc 1 655 0
 568 0000 024B     		ldr	r3, .L51
 569 0002 1878     		ldrb	r0, [r3]	@ zero_extendqisi2
 656:Generated_Source\PSoC5/BoostConv_1.c **** }
 570              		.loc 1 656 0
 571 0004 00F00100 		and	r0, r0, #1
 572 0008 7047     		bx	lr
 573              	.L52:
 574 000a 00BF     		.align	2
 575              	.L51:
 576 000c 26430040 		.word	1073759014
 577              		.cfi_endproc
 578              	.LFE11:
 579              		.size	BoostConv_1_ReadIntStatus, .-BoostConv_1_ReadIntStatus
 580              		.global	BoostConv_1_initVar
 581              		.data
 582              		.align	2
 583              		.set	.LANCHOR0,. + 0
 584              		.type	BoostConv_1_backup, %object
 585              		.size	BoostConv_1_backup, 2
 586              	BoostConv_1_backup:
 587 0000 1A       		.byte	26
 588 0001 03       		.byte	3
 589              		.bss
 590              		.set	.LANCHOR1,. + 0
 591              		.type	BoostConv_1_initVar, %object
 592              		.size	BoostConv_1_initVar, 1
 593              	BoostConv_1_initVar:
 594 0000 00       		.space	1
 595              		.text
 596              	.Letext0:
 597              		.file 2 "Generated_Source\\PSoC5\\cytypes.h"
 598              		.file 3 "Generated_Source\\PSoC5\\BoostConv_1.h"
 599              		.file 4 "Generated_Source\\PSoC5\\CyLib.h"