ARM GAS  C:\Users\LUCASI~1\AppData\Local\Temp\ccETTeye.s 			page 1


   1              		.syntax unified
   2              		.cpu cortex-m3
   3              		.fpu softvfp
   4              		.eabi_attribute 20, 1
   5              		.eabi_attribute 21, 1
   6              		.eabi_attribute 23, 3
   7              		.eabi_attribute 24, 1
   8              		.eabi_attribute 25, 1
   9              		.eabi_attribute 26, 1
  10              		.eabi_attribute 30, 1
  11              		.eabi_attribute 34, 1
  12              		.eabi_attribute 18, 4
  13              		.thumb
  14              		.syntax unified
  15              		.file	"MotorApp.c"
  16              		.text
  17              	.Ltext0:
  18              		.cfi_sections	.debug_frame
  19              		.section	.text.driveForwards,"ax",%progbits
  20              		.align	2
  21              		.global	driveForwards
  22              		.thumb
  23              		.thumb_func
  24              		.type	driveForwards, %function
  25              	driveForwards:
  26              	.LFB66:
  27              		.file 1 "MotorApp.c"
   1:MotorApp.c    **** #include "MotorApp.h"
   2:MotorApp.c    **** #include "waitingState.h"
   3:MotorApp.c    **** 
   4:MotorApp.c    **** /*
   5:MotorApp.c    **** Dette er et to dimensionelt array der indeholder de forskellige duty cycles der kan sendes til de t
   6:MotorApp.c    **** og vil altid køre således. Ved at skifte rundt rundt i første dimension vil beerdroid dreje endt
   7:MotorApp.c    **** */
   8:MotorApp.c    **** int driveState[7][2] = {{10, 100},
   9:MotorApp.c    ****                         {30, 100},
  10:MotorApp.c    ****                         {50, 100},
  11:MotorApp.c    ****                         {70, 100},
  12:MotorApp.c    ****                         {70, 80},
  13:MotorApp.c    ****                         {70, 60},
  14:MotorApp.c    ****                         {70, 40}};
  15:MotorApp.c    **** 
  16:MotorApp.c    **** 
  17:MotorApp.c    **** //denne funktion skifter tilfældigt rundt i driveState arrayet
  18:MotorApp.c    **** void speedSelect()
  19:MotorApp.c    **** {    
  20:MotorApp.c    ****     if(randState == 0)                      //Når randstate er 0, laves en ny randstate værdi ime
  21:MotorApp.c    ****         randState = rand() % 7 - 3;
  22:MotorApp.c    ****     
  23:MotorApp.c    ****     if(randState < 0)                       //Hvis randstate er under 0 rykkes en gang ned i arraye
  24:MotorApp.c    ****     {
  25:MotorApp.c    ****         changeState(-1);
  26:MotorApp.c    ****         randState++;                        //randsdtate forøges så den til sidst rammer 0 og der
  27:MotorApp.c    ****     }
  28:MotorApp.c    ****     else if(randState > 0)                  //Hvis randstate er over 0 rykkes en gang op i arrayet
  29:MotorApp.c    ****     {
  30:MotorApp.c    ****         changeState(1);
ARM GAS  C:\Users\LUCASI~1\AppData\Local\Temp\ccETTeye.s 			page 2


  31:MotorApp.c    ****         randState--;                        //randsdtate trækkes 1 fra så den til sidst rammer 0 
  32:MotorApp.c    ****     }
  33:MotorApp.c    **** }
  34:MotorApp.c    **** 
  35:MotorApp.c    **** void changeState(int change)                //Denne funktion sikre at state ikke forlader driveStat
  36:MotorApp.c    **** {
  37:MotorApp.c    ****   
  38:MotorApp.c    ****     
  39:MotorApp.c    ****     if(change == 1 || change == -1)
  40:MotorApp.c    ****     {
  41:MotorApp.c    ****         if(state > 0 && change == -1)
  42:MotorApp.c    ****         {
  43:MotorApp.c    ****             state += change;
  44:MotorApp.c    ****             changeSpeed();
  45:MotorApp.c    ****         }
  46:MotorApp.c    ****         else if(state < 6 && change == 1)
  47:MotorApp.c    ****         {
  48:MotorApp.c    ****             state += change;
  49:MotorApp.c    ****             changeSpeed();
  50:MotorApp.c    ****         } 
  51:MotorApp.c    ****     }
  52:MotorApp.c    **** }
  53:MotorApp.c    **** 
  54:MotorApp.c    **** 
  55:MotorApp.c    **** void driveForwards()                        //Denne funktion sætter motoren til at køre fremad
  56:MotorApp.c    **** {
  28              		.loc 1 56 0
  29              		.cfi_startproc
  30              		@ args = 0, pretend = 0, frame = 0
  31              		@ frame_needed = 0, uses_anonymous_args = 0
  32 0000 08B5     		push	{r3, lr}
  33              		.cfi_def_cfa_offset 8
  34              		.cfi_offset 3, -8
  35              		.cfi_offset 14, -4
  57:MotorApp.c    ****     if(running_ == 1)
  36              		.loc 1 57 0
  37 0002 0F4B     		ldr	r3, .L4
  38 0004 1B68     		ldr	r3, [r3]
  39 0006 012B     		cmp	r3, #1
  40 0008 19D1     		bne	.L1
  58:MotorApp.c    ****     {
  59:MotorApp.c    ****     motorPWM_1_Stop();
  41              		.loc 1 59 0
  42 000a FFF7FEFF 		bl	motorPWM_1_Stop
  43              	.LVL0:
  60:MotorApp.c    ****     motorPWM_2_Stop();
  44              		.loc 1 60 0
  45 000e FFF7FEFF 		bl	motorPWM_2_Stop
  46              	.LVL1:
  61:MotorApp.c    ****     
  62:MotorApp.c    ****     Pin1_dir1_Write(0);
  47              		.loc 1 62 0
  48 0012 0020     		movs	r0, #0
  49 0014 FFF7FEFF 		bl	Pin1_dir1_Write
  50              	.LVL2:
  63:MotorApp.c    ****     Pin1_dir2_Write(1);
  51              		.loc 1 63 0
ARM GAS  C:\Users\LUCASI~1\AppData\Local\Temp\ccETTeye.s 			page 3


  52 0018 0120     		movs	r0, #1
  53 001a FFF7FEFF 		bl	Pin1_dir2_Write
  54              	.LVL3:
  64:MotorApp.c    ****     Pin2_dir1_Write(0);
  55              		.loc 1 64 0
  56 001e 0020     		movs	r0, #0
  57 0020 FFF7FEFF 		bl	Pin2_dir1_Write
  58              	.LVL4:
  65:MotorApp.c    ****     Pin2_dir2_Write(1);
  59              		.loc 1 65 0
  60 0024 0120     		movs	r0, #1
  61 0026 FFF7FEFF 		bl	Pin2_dir2_Write
  62              	.LVL5:
  66:MotorApp.c    ****     
  67:MotorApp.c    ****     
  68:MotorApp.c    ****     motorPWM_1_WriteCompare(80); //Set speed to current drive state on PWM 1
  63              		.loc 1 68 0
  64 002a 5020     		movs	r0, #80
  65 002c FFF7FEFF 		bl	motorPWM_1_WriteCompare
  66              	.LVL6:
  69:MotorApp.c    ****     motorPWM_2_WriteCompare(80); //Set speed to current drive state on PWM 2
  67              		.loc 1 69 0
  68 0030 5020     		movs	r0, #80
  69 0032 FFF7FEFF 		bl	motorPWM_2_WriteCompare
  70              	.LVL7:
  70:MotorApp.c    ****     
  71:MotorApp.c    ****     motorPWM_1_Start();
  71              		.loc 1 71 0
  72 0036 FFF7FEFF 		bl	motorPWM_1_Start
  73              	.LVL8:
  72:MotorApp.c    ****     motorPWM_2_Start();
  74              		.loc 1 72 0
  75 003a FFF7FEFF 		bl	motorPWM_2_Start
  76              	.LVL9:
  77              	.L1:
  78 003e 08BD     		pop	{r3, pc}
  79              	.L5:
  80              		.align	2
  81              	.L4:
  82 0040 00000000 		.word	running_
  83              		.cfi_endproc
  84              	.LFE66:
  85              		.size	driveForwards, .-driveForwards
  86              		.section	.text.driveBackwards,"ax",%progbits
  87              		.align	2
  88              		.global	driveBackwards
  89              		.thumb
  90              		.thumb_func
  91              		.type	driveBackwards, %function
  92              	driveBackwards:
  93              	.LFB67:
  73:MotorApp.c    ****     }
  74:MotorApp.c    **** }
  75:MotorApp.c    **** 
  76:MotorApp.c    **** void driveBackwards()                       //Denne funktion sætter motoren til at køre bagud
  77:MotorApp.c    **** {
  94              		.loc 1 77 0
ARM GAS  C:\Users\LUCASI~1\AppData\Local\Temp\ccETTeye.s 			page 4


  95              		.cfi_startproc
  96              		@ args = 0, pretend = 0, frame = 0
  97              		@ frame_needed = 0, uses_anonymous_args = 0
  98 0000 08B5     		push	{r3, lr}
  99              		.cfi_def_cfa_offset 8
 100              		.cfi_offset 3, -8
 101              		.cfi_offset 14, -4
  78:MotorApp.c    ****     if(running_ == 1)
 102              		.loc 1 78 0
 103 0002 0F4B     		ldr	r3, .L9
 104 0004 1B68     		ldr	r3, [r3]
 105 0006 012B     		cmp	r3, #1
 106 0008 19D1     		bne	.L6
  79:MotorApp.c    ****     {
  80:MotorApp.c    ****     motorPWM_1_Stop();
 107              		.loc 1 80 0
 108 000a FFF7FEFF 		bl	motorPWM_1_Stop
 109              	.LVL10:
  81:MotorApp.c    ****     motorPWM_2_Stop();
 110              		.loc 1 81 0
 111 000e FFF7FEFF 		bl	motorPWM_2_Stop
 112              	.LVL11:
  82:MotorApp.c    ****     
  83:MotorApp.c    ****     Pin1_dir1_Write(1);
 113              		.loc 1 83 0
 114 0012 0120     		movs	r0, #1
 115 0014 FFF7FEFF 		bl	Pin1_dir1_Write
 116              	.LVL12:
  84:MotorApp.c    ****     Pin1_dir2_Write(0);
 117              		.loc 1 84 0
 118 0018 0020     		movs	r0, #0
 119 001a FFF7FEFF 		bl	Pin1_dir2_Write
 120              	.LVL13:
  85:MotorApp.c    ****     Pin2_dir1_Write(1);
 121              		.loc 1 85 0
 122 001e 0120     		movs	r0, #1
 123 0020 FFF7FEFF 		bl	Pin2_dir1_Write
 124              	.LVL14:
  86:MotorApp.c    ****     Pin2_dir2_Write(0);
 125              		.loc 1 86 0
 126 0024 0020     		movs	r0, #0
 127 0026 FFF7FEFF 		bl	Pin2_dir2_Write
 128              	.LVL15:
  87:MotorApp.c    ****     
  88:MotorApp.c    ****     motorPWM_1_WriteCompare(80); //Set speed to current drive state on PWM 1
 129              		.loc 1 88 0
 130 002a 5020     		movs	r0, #80
 131 002c FFF7FEFF 		bl	motorPWM_1_WriteCompare
 132              	.LVL16:
  89:MotorApp.c    ****     motorPWM_2_WriteCompare(80); //Set speed to current drive state on PWM 2
 133              		.loc 1 89 0
 134 0030 5020     		movs	r0, #80
 135 0032 FFF7FEFF 		bl	motorPWM_2_WriteCompare
 136              	.LVL17:
  90:MotorApp.c    ****     
  91:MotorApp.c    ****     motorPWM_1_Start();
 137              		.loc 1 91 0
ARM GAS  C:\Users\LUCASI~1\AppData\Local\Temp\ccETTeye.s 			page 5


 138 0036 FFF7FEFF 		bl	motorPWM_1_Start
 139              	.LVL18:
  92:MotorApp.c    ****     motorPWM_2_Start();
 140              		.loc 1 92 0
 141 003a FFF7FEFF 		bl	motorPWM_2_Start
 142              	.LVL19:
 143              	.L6:
 144 003e 08BD     		pop	{r3, pc}
 145              	.L10:
 146              		.align	2
 147              	.L9:
 148 0040 00000000 		.word	running_
 149              		.cfi_endproc
 150              	.LFE67:
 151              		.size	driveBackwards, .-driveBackwards
 152              		.section	.text.motorStop,"ax",%progbits
 153              		.align	2
 154              		.global	motorStop
 155              		.thumb
 156              		.thumb_func
 157              		.type	motorStop, %function
 158              	motorStop:
 159              	.LFB68:
  93:MotorApp.c    ****     }
  94:MotorApp.c    **** }
  95:MotorApp.c    **** 
  96:MotorApp.c    **** void motorStop()
  97:MotorApp.c    **** {
 160              		.loc 1 97 0
 161              		.cfi_startproc
 162              		@ args = 0, pretend = 0, frame = 0
 163              		@ frame_needed = 0, uses_anonymous_args = 0
 164 0000 08B5     		push	{r3, lr}
 165              		.cfi_def_cfa_offset 8
 166              		.cfi_offset 3, -8
 167              		.cfi_offset 14, -4
  98:MotorApp.c    ****     
  99:MotorApp.c    ****     
 100:MotorApp.c    ****     motorPWM_1_Stop();
 168              		.loc 1 100 0
 169 0002 FFF7FEFF 		bl	motorPWM_1_Stop
 170              	.LVL20:
 101:MotorApp.c    ****     motorPWM_2_Stop();
 171              		.loc 1 101 0
 172 0006 FFF7FEFF 		bl	motorPWM_2_Stop
 173              	.LVL21:
 174 000a 08BD     		pop	{r3, pc}
 175              		.cfi_endproc
 176              	.LFE68:
 177              		.size	motorStop, .-motorStop
 178              		.section	.text.changeSpeed,"ax",%progbits
 179              		.align	2
 180              		.global	changeSpeed
 181              		.thumb
 182              		.thumb_func
 183              		.type	changeSpeed, %function
 184              	changeSpeed:
ARM GAS  C:\Users\LUCASI~1\AppData\Local\Temp\ccETTeye.s 			page 6


 185              	.LFB69:
 102:MotorApp.c    ****     
 103:MotorApp.c    **** }
 104:MotorApp.c    **** 
 105:MotorApp.c    **** void changeSpeed()                          //Denne funktion ændre placering i driveState, og herm
 106:MotorApp.c    **** {
 186              		.loc 1 106 0
 187              		.cfi_startproc
 188              		@ args = 0, pretend = 0, frame = 0
 189              		@ frame_needed = 0, uses_anonymous_args = 0
 190 0000 08B5     		push	{r3, lr}
 191              		.cfi_def_cfa_offset 8
 192              		.cfi_offset 3, -8
 193              		.cfi_offset 14, -4
 107:MotorApp.c    ****     //state = 3;
 108:MotorApp.c    **** 
 109:MotorApp.c    ****     motorPWM_1_Stop();
 194              		.loc 1 109 0
 195 0002 FFF7FEFF 		bl	motorPWM_1_Stop
 196              	.LVL22:
 110:MotorApp.c    ****     motorPWM_2_Stop();
 197              		.loc 1 110 0
 198 0006 FFF7FEFF 		bl	motorPWM_2_Stop
 199              	.LVL23:
 111:MotorApp.c    ****     
 112:MotorApp.c    ****     if(driveState[state][0] > 9 && driveState[state][0] < 71)     //sikre at arrayet ikke forlades
 200              		.loc 1 112 0
 201 000a 154B     		ldr	r3, .L17
 202 000c 1A68     		ldr	r2, [r3]
 203 000e 154B     		ldr	r3, .L17+4
 204 0010 53F83230 		ldr	r3, [r3, r2, lsl #3]
 205 0014 0A3B     		subs	r3, r3, #10
 206 0016 3C2B     		cmp	r3, #60
 207 0018 09D8     		bhi	.L14
 113:MotorApp.c    ****     {
 114:MotorApp.c    ****         motorPWM_1_WritePeriod(170);
 208              		.loc 1 114 0
 209 001a AA20     		movs	r0, #170
 210 001c FFF7FEFF 		bl	motorPWM_1_WritePeriod
 211              	.LVL24:
 115:MotorApp.c    ****         motorPWM_1_WriteCompare(driveState[state][0]); //Set speed to current drive state on PWM 1 
 212              		.loc 1 115 0
 213 0020 0F4B     		ldr	r3, .L17
 214 0022 1A68     		ldr	r2, [r3]
 215 0024 0F4B     		ldr	r3, .L17+4
 216 0026 13F83200 		ldrb	r0, [r3, r2, lsl #3]	@ zero_extendqisi2
 217 002a FFF7FEFF 		bl	motorPWM_1_WriteCompare
 218              	.LVL25:
 219              	.L14:
 116:MotorApp.c    ****     }
 117:MotorApp.c    ****     if(driveState[state][1] > 39 && driveState[state][1] < 101)     //sikre at arrayet ikke forlade
 220              		.loc 1 117 0
 221 002e 0C4B     		ldr	r3, .L17
 222 0030 1A68     		ldr	r2, [r3]
 223 0032 0C4B     		ldr	r3, .L17+4
 224 0034 03EBC203 		add	r3, r3, r2, lsl #3
 225 0038 5B68     		ldr	r3, [r3, #4]
ARM GAS  C:\Users\LUCASI~1\AppData\Local\Temp\ccETTeye.s 			page 7


 226 003a 283B     		subs	r3, r3, #40
 227 003c 3C2B     		cmp	r3, #60
 228 003e 0AD8     		bhi	.L15
 118:MotorApp.c    ****     {
 119:MotorApp.c    ****         motorPWM_2_WritePeriod(170);
 229              		.loc 1 119 0
 230 0040 AA20     		movs	r0, #170
 231 0042 FFF7FEFF 		bl	motorPWM_2_WritePeriod
 232              	.LVL26:
 120:MotorApp.c    ****         motorPWM_2_WriteCompare(driveState[state][1]); //Set speed to current drive state on PWM 2 
 233              		.loc 1 120 0
 234 0046 064B     		ldr	r3, .L17
 235 0048 1A68     		ldr	r2, [r3]
 236 004a 064B     		ldr	r3, .L17+4
 237 004c 03EBC203 		add	r3, r3, r2, lsl #3
 238 0050 1879     		ldrb	r0, [r3, #4]	@ zero_extendqisi2
 239 0052 FFF7FEFF 		bl	motorPWM_2_WriteCompare
 240              	.LVL27:
 241              	.L15:
 121:MotorApp.c    ****     }
 122:MotorApp.c    ****     
 123:MotorApp.c    ****     motorPWM_1_Start();
 242              		.loc 1 123 0
 243 0056 FFF7FEFF 		bl	motorPWM_1_Start
 244              	.LVL28:
 124:MotorApp.c    ****     motorPWM_2_Start();
 245              		.loc 1 124 0
 246 005a FFF7FEFF 		bl	motorPWM_2_Start
 247              	.LVL29:
 248 005e 08BD     		pop	{r3, pc}
 249              	.L18:
 250              		.align	2
 251              	.L17:
 252 0060 00000000 		.word	state
 253 0064 00000000 		.word	.LANCHOR0
 254              		.cfi_endproc
 255              	.LFE69:
 256              		.size	changeSpeed, .-changeSpeed
 257              		.section	.text.changeState,"ax",%progbits
 258              		.align	2
 259              		.global	changeState
 260              		.thumb
 261              		.thumb_func
 262              		.type	changeState, %function
 263              	changeState:
 264              	.LFB65:
  36:MotorApp.c    ****   
 265              		.loc 1 36 0
 266              		.cfi_startproc
 267              		@ args = 0, pretend = 0, frame = 0
 268              		@ frame_needed = 0, uses_anonymous_args = 0
 269              	.LVL30:
 270 0000 08B5     		push	{r3, lr}
 271              		.cfi_def_cfa_offset 8
 272              		.cfi_offset 3, -8
 273              		.cfi_offset 14, -4
  39:MotorApp.c    ****     {
ARM GAS  C:\Users\LUCASI~1\AppData\Local\Temp\ccETTeye.s 			page 8


 274              		.loc 1 39 0
 275 0002 0128     		cmp	r0, #1
 276 0004 02D0     		beq	.L20
  39:MotorApp.c    ****     {
 277              		.loc 1 39 0 is_stmt 0 discriminator 1
 278 0006 B0F1FF3F 		cmp	r0, #-1
 279 000a 15D1     		bne	.L19
 280              	.L20:
  41:MotorApp.c    ****         {
 281              		.loc 1 41 0 is_stmt 1
 282 000c 0B4B     		ldr	r3, .L24
 283 000e 1B68     		ldr	r3, [r3]
 284 0010 002B     		cmp	r3, #0
 285 0012 08DD     		ble	.L22
  41:MotorApp.c    ****         {
 286              		.loc 1 41 0 is_stmt 0 discriminator 1
 287 0014 B0F1FF3F 		cmp	r0, #-1
 288 0018 05D1     		bne	.L22
  43:MotorApp.c    ****             changeSpeed();
 289              		.loc 1 43 0 is_stmt 1
 290 001a 1844     		add	r0, r0, r3
 291              	.LVL31:
 292 001c 074B     		ldr	r3, .L24
 293 001e 1860     		str	r0, [r3]
  44:MotorApp.c    ****         }
 294              		.loc 1 44 0
 295 0020 FFF7FEFF 		bl	changeSpeed
 296              	.LVL32:
 297 0024 08BD     		pop	{r3, pc}
 298              	.LVL33:
 299              	.L22:
  46:MotorApp.c    ****         {
 300              		.loc 1 46 0
 301 0026 052B     		cmp	r3, #5
 302 0028 06DC     		bgt	.L19
  46:MotorApp.c    ****         {
 303              		.loc 1 46 0 is_stmt 0 discriminator 1
 304 002a 0128     		cmp	r0, #1
 305 002c 04D1     		bne	.L19
  48:MotorApp.c    ****             changeSpeed();
 306              		.loc 1 48 0 is_stmt 1
 307 002e 1844     		add	r0, r0, r3
 308              	.LVL34:
 309 0030 024B     		ldr	r3, .L24
 310 0032 1860     		str	r0, [r3]
  49:MotorApp.c    ****         } 
 311              		.loc 1 49 0
 312 0034 FFF7FEFF 		bl	changeSpeed
 313              	.LVL35:
 314              	.L19:
 315 0038 08BD     		pop	{r3, pc}
 316              	.L25:
 317 003a 00BF     		.align	2
 318              	.L24:
 319 003c 00000000 		.word	state
 320              		.cfi_endproc
 321              	.LFE65:
ARM GAS  C:\Users\LUCASI~1\AppData\Local\Temp\ccETTeye.s 			page 9


 322              		.size	changeState, .-changeState
 323              		.section	.text.speedSelect,"ax",%progbits
 324              		.align	2
 325              		.global	speedSelect
 326              		.thumb
 327              		.thumb_func
 328              		.type	speedSelect, %function
 329              	speedSelect:
 330              	.LFB64:
  19:MotorApp.c    ****     if(randState == 0)                      //Når randstate er 0, laves en ny randstate værdi ime
 331              		.loc 1 19 0
 332              		.cfi_startproc
 333              		@ args = 0, pretend = 0, frame = 0
 334              		@ frame_needed = 0, uses_anonymous_args = 0
 335 0000 08B5     		push	{r3, lr}
 336              		.cfi_def_cfa_offset 8
 337              		.cfi_offset 3, -8
 338              		.cfi_offset 14, -4
  20:MotorApp.c    ****         randState = rand() % 7 - 3;
 339              		.loc 1 20 0
 340 0002 144B     		ldr	r3, .L31
 341 0004 1B68     		ldr	r3, [r3]
 342 0006 73B9     		cbnz	r3, .L27
  21:MotorApp.c    ****     
 343              		.loc 1 21 0
 344 0008 FFF7FEFF 		bl	rand
 345              	.LVL36:
 346 000c 124A     		ldr	r2, .L31+4
 347 000e 80FB0223 		smull	r2, r3, r0, r2
 348 0012 C218     		adds	r2, r0, r3
 349 0014 C317     		asrs	r3, r0, #31
 350 0016 C3EBA203 		rsb	r3, r3, r2, asr #2
 351 001a C3EBC303 		rsb	r3, r3, r3, lsl #3
 352 001e C31A     		subs	r3, r0, r3
 353 0020 033B     		subs	r3, r3, #3
 354 0022 0C4A     		ldr	r2, .L31
 355 0024 1360     		str	r3, [r2]
 356              	.L27:
  23:MotorApp.c    ****     {
 357              		.loc 1 23 0
 358 0026 0B4B     		ldr	r3, .L31
 359 0028 1B68     		ldr	r3, [r3]
 360 002a 002B     		cmp	r3, #0
 361 002c 08DA     		bge	.L28
  25:MotorApp.c    ****         randState++;                        //randsdtate forøges så den til sidst rammer 0 og der
 362              		.loc 1 25 0
 363 002e 4FF0FF30 		mov	r0, #-1
 364 0032 FFF7FEFF 		bl	changeState
 365              	.LVL37:
  26:MotorApp.c    ****     }
 366              		.loc 1 26 0
 367 0036 074A     		ldr	r2, .L31
 368 0038 1368     		ldr	r3, [r2]
 369 003a 0133     		adds	r3, r3, #1
 370 003c 1360     		str	r3, [r2]
 371 003e 08BD     		pop	{r3, pc}
 372              	.L28:
ARM GAS  C:\Users\LUCASI~1\AppData\Local\Temp\ccETTeye.s 			page 10


  28:MotorApp.c    ****     {
 373              		.loc 1 28 0
 374 0040 002B     		cmp	r3, #0
 375 0042 06DD     		ble	.L26
  30:MotorApp.c    ****         randState--;                        //randsdtate trækkes 1 fra så den til sidst rammer 0 
 376              		.loc 1 30 0
 377 0044 0120     		movs	r0, #1
 378 0046 FFF7FEFF 		bl	changeState
 379              	.LVL38:
  31:MotorApp.c    ****     }
 380              		.loc 1 31 0
 381 004a 024A     		ldr	r2, .L31
 382 004c 1368     		ldr	r3, [r2]
 383 004e 013B     		subs	r3, r3, #1
 384 0050 1360     		str	r3, [r2]
 385              	.L26:
 386 0052 08BD     		pop	{r3, pc}
 387              	.L32:
 388              		.align	2
 389              	.L31:
 390 0054 00000000 		.word	randState
 391 0058 93244992 		.word	-1840700269
 392              		.cfi_endproc
 393              	.LFE64:
 394              		.size	speedSelect, .-speedSelect
 395              		.section	.text.DelayBased90Turn,"ax",%progbits
 396              		.align	2
 397              		.global	DelayBased90Turn
 398              		.thumb
 399              		.thumb_func
 400              		.type	DelayBased90Turn, %function
 401              	DelayBased90Turn:
 402              	.LFB70:
 125:MotorApp.c    **** }
 126:MotorApp.c    **** 
 127:MotorApp.c    **** void DelayBased90Turn(int dir)
 128:MotorApp.c    **** {
 403              		.loc 1 128 0
 404              		.cfi_startproc
 405              		@ args = 0, pretend = 0, frame = 0
 406              		@ frame_needed = 0, uses_anonymous_args = 0
 407              	.LVL39:
 129:MotorApp.c    ****     if(running_ == 1)
 408              		.loc 1 129 0
 409 0000 214B     		ldr	r3, .L40
 410 0002 1B68     		ldr	r3, [r3]
 411 0004 012B     		cmp	r3, #1
 412 0006 3ED1     		bne	.L39
 128:MotorApp.c    ****     if(running_ == 1)
 413              		.loc 1 128 0
 414 0008 10B5     		push	{r4, lr}
 415              		.cfi_def_cfa_offset 8
 416              		.cfi_offset 4, -8
 417              		.cfi_offset 14, -4
 418 000a 0446     		mov	r4, r0
 130:MotorApp.c    ****     {
 131:MotorApp.c    ****     motorPWM_1_Stop();
ARM GAS  C:\Users\LUCASI~1\AppData\Local\Temp\ccETTeye.s 			page 11


 419              		.loc 1 131 0
 420 000c FFF7FEFF 		bl	motorPWM_1_Stop
 421              	.LVL40:
 132:MotorApp.c    ****     motorPWM_2_Stop();
 422              		.loc 1 132 0
 423 0010 FFF7FEFF 		bl	motorPWM_2_Stop
 424              	.LVL41:
 133:MotorApp.c    ****     
 134:MotorApp.c    ****     CyDelay(250);
 425              		.loc 1 134 0
 426 0014 FA20     		movs	r0, #250
 427 0016 FFF7FEFF 		bl	CyDelay
 428              	.LVL42:
 135:MotorApp.c    ****     
 136:MotorApp.c    ****     switch(dir)
 429              		.loc 1 136 0
 430 001a 012C     		cmp	r4, #1
 431 001c 02D0     		beq	.L36
 432 001e 022C     		cmp	r4, #2
 433 0020 0DD0     		beq	.L37
 434 0022 18E0     		b	.L35
 435              	.L36:
 137:MotorApp.c    ****     {
 138:MotorApp.c    ****         case 1 :
 139:MotorApp.c    ****             Pin1_dir1_Write(0);
 436              		.loc 1 139 0
 437 0024 0020     		movs	r0, #0
 438 0026 FFF7FEFF 		bl	Pin1_dir1_Write
 439              	.LVL43:
 140:MotorApp.c    ****             Pin1_dir2_Write(1);
 440              		.loc 1 140 0
 441 002a 0120     		movs	r0, #1
 442 002c FFF7FEFF 		bl	Pin1_dir2_Write
 443              	.LVL44:
 141:MotorApp.c    ****             Pin2_dir1_Write(1);
 444              		.loc 1 141 0
 445 0030 0120     		movs	r0, #1
 446 0032 FFF7FEFF 		bl	Pin2_dir1_Write
 447              	.LVL45:
 142:MotorApp.c    ****             Pin2_dir2_Write(0);
 448              		.loc 1 142 0
 449 0036 0020     		movs	r0, #0
 450 0038 FFF7FEFF 		bl	Pin2_dir2_Write
 451              	.LVL46:
 143:MotorApp.c    ****             break;
 452              		.loc 1 143 0
 453 003c 0BE0     		b	.L35
 454              	.L37:
 144:MotorApp.c    ****         case 2 :
 145:MotorApp.c    ****             Pin1_dir2_Write(0);
 455              		.loc 1 145 0
 456 003e 0020     		movs	r0, #0
 457 0040 FFF7FEFF 		bl	Pin1_dir2_Write
 458              	.LVL47:
 146:MotorApp.c    ****             Pin1_dir1_Write(1);
 459              		.loc 1 146 0
 460 0044 0120     		movs	r0, #1
ARM GAS  C:\Users\LUCASI~1\AppData\Local\Temp\ccETTeye.s 			page 12


 461 0046 FFF7FEFF 		bl	Pin1_dir1_Write
 462              	.LVL48:
 147:MotorApp.c    ****             Pin2_dir2_Write(1);
 463              		.loc 1 147 0
 464 004a 0120     		movs	r0, #1
 465 004c FFF7FEFF 		bl	Pin2_dir2_Write
 466              	.LVL49:
 148:MotorApp.c    ****             Pin2_dir1_Write(0);
 467              		.loc 1 148 0
 468 0050 0020     		movs	r0, #0
 469 0052 FFF7FEFF 		bl	Pin2_dir1_Write
 470              	.LVL50:
 471              	.L35:
 149:MotorApp.c    ****             break;
 150:MotorApp.c    ****     }
 151:MotorApp.c    ****     
 152:MotorApp.c    ****     
 153:MotorApp.c    ****     motorPWM_1_WriteCompare(100);
 472              		.loc 1 153 0
 473 0056 6420     		movs	r0, #100
 474 0058 FFF7FEFF 		bl	motorPWM_1_WriteCompare
 475              	.LVL51:
 154:MotorApp.c    ****     motorPWM_2_WriteCompare(100);
 476              		.loc 1 154 0
 477 005c 6420     		movs	r0, #100
 478 005e FFF7FEFF 		bl	motorPWM_2_WriteCompare
 479              	.LVL52:
 155:MotorApp.c    ****     
 156:MotorApp.c    ****     motorPWM_1_Start();
 480              		.loc 1 156 0
 481 0062 FFF7FEFF 		bl	motorPWM_1_Start
 482              	.LVL53:
 157:MotorApp.c    ****     motorPWM_2_Start();
 483              		.loc 1 157 0
 484 0066 FFF7FEFF 		bl	motorPWM_2_Start
 485              	.LVL54:
 158:MotorApp.c    ****     
 159:MotorApp.c    ****     CyDelay(500);
 486              		.loc 1 159 0
 487 006a 4FF4FA70 		mov	r0, #500
 488 006e FFF7FEFF 		bl	CyDelay
 489              	.LVL55:
 160:MotorApp.c    ****     
 161:MotorApp.c    ****     motorPWM_1_Stop();
 490              		.loc 1 161 0
 491 0072 FFF7FEFF 		bl	motorPWM_1_Stop
 492              	.LVL56:
 162:MotorApp.c    ****     motorPWM_2_Stop();
 493              		.loc 1 162 0
 494 0076 FFF7FEFF 		bl	motorPWM_2_Stop
 495              	.LVL57:
 163:MotorApp.c    ****     
 164:MotorApp.c    ****     CyDelay(250);
 496              		.loc 1 164 0
 497 007a FA20     		movs	r0, #250
 498 007c FFF7FEFF 		bl	CyDelay
 499              	.LVL58:
ARM GAS  C:\Users\LUCASI~1\AppData\Local\Temp\ccETTeye.s 			page 13


 165:MotorApp.c    ****     
 166:MotorApp.c    ****     driveForwards(); 
 500              		.loc 1 166 0
 501 0080 FFF7FEFF 		bl	driveForwards
 502              	.LVL59:
 503 0084 10BD     		pop	{r4, pc}
 504              	.LVL60:
 505              	.L39:
 506              		.cfi_def_cfa_offset 0
 507              		.cfi_restore 4
 508              		.cfi_restore 14
 509 0086 7047     		bx	lr
 510              	.L41:
 511              		.align	2
 512              	.L40:
 513 0088 00000000 		.word	running_
 514              		.cfi_endproc
 515              	.LFE70:
 516              		.size	DelayBased90Turn, .-DelayBased90Turn
 517              		.section	.text.DelayBased180Turn,"ax",%progbits
 518              		.align	2
 519              		.global	DelayBased180Turn
 520              		.thumb
 521              		.thumb_func
 522              		.type	DelayBased180Turn, %function
 523              	DelayBased180Turn:
 524              	.LFB71:
 167:MotorApp.c    ****     }
 168:MotorApp.c    **** }
 169:MotorApp.c    **** 
 170:MotorApp.c    **** 
 171:MotorApp.c    **** void DelayBased180Turn()
 172:MotorApp.c    **** {
 525              		.loc 1 172 0
 526              		.cfi_startproc
 527              		@ args = 0, pretend = 0, frame = 0
 528              		@ frame_needed = 0, uses_anonymous_args = 0
 529 0000 08B5     		push	{r3, lr}
 530              		.cfi_def_cfa_offset 8
 531              		.cfi_offset 3, -8
 532              		.cfi_offset 14, -4
 173:MotorApp.c    ****     if(running_ == 1)
 533              		.loc 1 173 0
 534 0002 1E4B     		ldr	r3, .L45
 535 0004 1B68     		ldr	r3, [r3]
 536 0006 012B     		cmp	r3, #1
 537 0008 36D1     		bne	.L42
 174:MotorApp.c    ****     {
 175:MotorApp.c    ****     motorPWM_1_Stop();
 538              		.loc 1 175 0
 539 000a FFF7FEFF 		bl	motorPWM_1_Stop
 540              	.LVL61:
 176:MotorApp.c    ****     motorPWM_2_Stop();
 541              		.loc 1 176 0
 542 000e FFF7FEFF 		bl	motorPWM_2_Stop
 543              	.LVL62:
 177:MotorApp.c    ****     
ARM GAS  C:\Users\LUCASI~1\AppData\Local\Temp\ccETTeye.s 			page 14


 178:MotorApp.c    ****     CyDelay(250);
 544              		.loc 1 178 0
 545 0012 FA20     		movs	r0, #250
 546 0014 FFF7FEFF 		bl	CyDelay
 547              	.LVL63:
 179:MotorApp.c    ****     
 180:MotorApp.c    ****     driveBackwards();
 548              		.loc 1 180 0
 549 0018 FFF7FEFF 		bl	driveBackwards
 550              	.LVL64:
 181:MotorApp.c    ****     
 182:MotorApp.c    ****     CyDelay(1000);
 551              		.loc 1 182 0
 552 001c 4FF47A70 		mov	r0, #1000
 553 0020 FFF7FEFF 		bl	CyDelay
 554              	.LVL65:
 183:MotorApp.c    ****     
 184:MotorApp.c    ****     motorPWM_1_Stop();
 555              		.loc 1 184 0
 556 0024 FFF7FEFF 		bl	motorPWM_1_Stop
 557              	.LVL66:
 185:MotorApp.c    ****     motorPWM_2_Stop();
 558              		.loc 1 185 0
 559 0028 FFF7FEFF 		bl	motorPWM_2_Stop
 560              	.LVL67:
 186:MotorApp.c    ****     
 187:MotorApp.c    ****     CyDelay(250);
 561              		.loc 1 187 0
 562 002c FA20     		movs	r0, #250
 563 002e FFF7FEFF 		bl	CyDelay
 564              	.LVL68:
 188:MotorApp.c    ****     
 189:MotorApp.c    ****     Pin1_dir1_Write(0);
 565              		.loc 1 189 0
 566 0032 0020     		movs	r0, #0
 567 0034 FFF7FEFF 		bl	Pin1_dir1_Write
 568              	.LVL69:
 190:MotorApp.c    ****     Pin1_dir2_Write(1);
 569              		.loc 1 190 0
 570 0038 0120     		movs	r0, #1
 571 003a FFF7FEFF 		bl	Pin1_dir2_Write
 572              	.LVL70:
 191:MotorApp.c    ****     Pin2_dir1_Write(1);
 573              		.loc 1 191 0
 574 003e 0120     		movs	r0, #1
 575 0040 FFF7FEFF 		bl	Pin2_dir1_Write
 576              	.LVL71:
 192:MotorApp.c    ****     Pin2_dir2_Write(0);
 577              		.loc 1 192 0
 578 0044 0020     		movs	r0, #0
 579 0046 FFF7FEFF 		bl	Pin2_dir2_Write
 580              	.LVL72:
 193:MotorApp.c    ****     
 194:MotorApp.c    ****     motorPWM_1_Start();
 581              		.loc 1 194 0
 582 004a FFF7FEFF 		bl	motorPWM_1_Start
 583              	.LVL73:
ARM GAS  C:\Users\LUCASI~1\AppData\Local\Temp\ccETTeye.s 			page 15


 195:MotorApp.c    ****     motorPWM_2_Start();
 584              		.loc 1 195 0
 585 004e FFF7FEFF 		bl	motorPWM_2_Start
 586              	.LVL74:
 196:MotorApp.c    ****     
 197:MotorApp.c    ****     motorPWM_1_WriteCompare(100);
 587              		.loc 1 197 0
 588 0052 6420     		movs	r0, #100
 589 0054 FFF7FEFF 		bl	motorPWM_1_WriteCompare
 590              	.LVL75:
 198:MotorApp.c    ****     motorPWM_2_WriteCompare(100);
 591              		.loc 1 198 0
 592 0058 6420     		movs	r0, #100
 593 005a FFF7FEFF 		bl	motorPWM_2_WriteCompare
 594              	.LVL76:
 199:MotorApp.c    ****     
 200:MotorApp.c    ****     CyDelay(1000);
 595              		.loc 1 200 0
 596 005e 4FF47A70 		mov	r0, #1000
 597 0062 FFF7FEFF 		bl	CyDelay
 598              	.LVL77:
 201:MotorApp.c    ****     
 202:MotorApp.c    ****     motorPWM_1_Stop();
 599              		.loc 1 202 0
 600 0066 FFF7FEFF 		bl	motorPWM_1_Stop
 601              	.LVL78:
 203:MotorApp.c    ****     motorPWM_2_Stop();
 602              		.loc 1 203 0
 603 006a FFF7FEFF 		bl	motorPWM_2_Stop
 604              	.LVL79:
 204:MotorApp.c    ****     
 205:MotorApp.c    ****     CyDelay(250);
 605              		.loc 1 205 0
 606 006e FA20     		movs	r0, #250
 607 0070 FFF7FEFF 		bl	CyDelay
 608              	.LVL80:
 206:MotorApp.c    ****     
 207:MotorApp.c    ****     driveForwards();
 609              		.loc 1 207 0
 610 0074 FFF7FEFF 		bl	driveForwards
 611              	.LVL81:
 612              	.L42:
 613 0078 08BD     		pop	{r3, pc}
 614              	.L46:
 615 007a 00BF     		.align	2
 616              	.L45:
 617 007c 00000000 		.word	running_
 618              		.cfi_endproc
 619              	.LFE71:
 620              		.size	DelayBased180Turn, .-DelayBased180Turn
 621              		.global	driveState
 622              		.comm	running_,4,4
 623              		.comm	randturn,4,4
 624              		.comm	randState,4,4
 625              		.comm	state,4,4
 626              		.comm	difficulty,4,4
 627              		.comm	buffer,250,4
ARM GAS  C:\Users\LUCASI~1\AppData\Local\Temp\ccETTeye.s 			page 16


 628              		.data
 629              		.align	2
 630              		.set	.LANCHOR0,. + 0
 631              		.type	driveState, %object
 632              		.size	driveState, 56
 633              	driveState:
 634 0000 0A000000 		.word	10
 635 0004 64000000 		.word	100
 636 0008 1E000000 		.word	30
 637 000c 64000000 		.word	100
 638 0010 32000000 		.word	50
 639 0014 64000000 		.word	100
 640 0018 46000000 		.word	70
 641 001c 64000000 		.word	100
 642 0020 46000000 		.word	70
 643 0024 50000000 		.word	80
 644 0028 46000000 		.word	70
 645 002c 3C000000 		.word	60
 646 0030 46000000 		.word	70
 647 0034 28000000 		.word	40
 648              		.text
 649              	.Letext0:
 650              		.file 2 "c:\\program files (x86)\\cypress\\psoc creator\\4.2\\psoc creator\\import\\gnu\\arm\\5.4.
 651              		.file 3 "c:\\program files (x86)\\cypress\\psoc creator\\4.2\\psoc creator\\import\\gnu\\arm\\5.4.
 652              		.file 4 "Generated_Source\\PSoC5/core_cm3.h"
 653              		.file 5 "MotorApp.h"
 654              		.file 6 "waitingState.h"
 655              		.file 7 "Generated_Source\\PSoC5/motorPWM_1.h"
 656              		.file 8 "Generated_Source\\PSoC5/motorPWM_2.h"
 657              		.file 9 "Generated_Source\\PSoC5/Pin1_dir1.h"
 658              		.file 10 "Generated_Source\\PSoC5/Pin1_dir2.h"
 659              		.file 11 "Generated_Source\\PSoC5/Pin2_dir1.h"
 660              		.file 12 "Generated_Source\\PSoC5/Pin2_dir2.h"
 661              		.file 13 "c:\\program files (x86)\\cypress\\psoc creator\\4.2\\psoc creator\\import\\gnu\\arm\\5.4
 662              		.file 14 "Generated_Source\\PSoC5/CyLib.h"