ARM GAS  C:\Users\CHRIST~1\AppData\Local\Temp\ccfrOZ4v.s 			page 1


   1              		.syntax unified
   2              		.cpu cortex-m3
   3              		.fpu softvfp
   4              		.eabi_attribute 20, 1
   5              		.eabi_attribute 21, 1
   6              		.eabi_attribute 23, 3
   7              		.eabi_attribute 24, 1
   8              		.eabi_attribute 25, 1
   9              		.eabi_attribute 26, 1
  10              		.eabi_attribute 30, 1
  11              		.eabi_attribute 34, 1
  12              		.eabi_attribute 18, 4
  13              		.thumb
  14              		.syntax unified
  15              		.file	"ballSensorApp.c"
  16              		.text
  17              	.Ltext0:
  18              		.cfi_sections	.debug_frame
  19              		.global	__aeabi_i2f
  20              		.global	__aeabi_fmul
  21              		.global	__aeabi_fadd
  22              		.section	.text.Sample_int,"ax",%progbits
  23              		.align	2
  24              		.global	Sample_int
  25              		.thumb
  26              		.thumb_func
  27              		.type	Sample_int, %function
  28              	Sample_int:
  29              	.LFB69:
  30              		.file 1 "ballSensorApp.c"
   1:ballSensorApp.c **** #include "ballSensorApp.h"
   2:ballSensorApp.c **** 
   3:ballSensorApp.c ****     
   4:ballSensorApp.c **** void CompareValues(){
   5:ballSensorApp.c ****     if (measurements %5 == 0 || measurements == 1){
   6:ballSensorApp.c ****             if (V_Sample_AVG_float > max_value + ballEffect){
   7:ballSensorApp.c ****                 LED_Write(1);
   8:ballSensorApp.c ****                 PWM_motor_Stop();
   9:ballSensorApp.c ****                 CyDelay(5000);
  10:ballSensorApp.c ****             }
  11:ballSensorApp.c ****         max_value=ADC_DelSig_1_CountsTo_Volts(V_Sample_AVG);
  12:ballSensorApp.c ****     }
  13:ballSensorApp.c **** }
  14:ballSensorApp.c ****  
  15:ballSensorApp.c **** float Measure(){
  16:ballSensorApp.c ****     
  17:ballSensorApp.c **** 	    V_Sample_SUM_1=0;
  18:ballSensorApp.c **** 		V_Sample_SUM_2=0;
  19:ballSensorApp.c **** 		V_Sample_MIN= ((1<<15)-1) ; // int: ((1<<15)-1) uint: 0-1 (32767)
  20:ballSensorApp.c **** 		V_Sample_MAX=1 << 15;       // int: 1<<15       uint: 0   (32768)
  21:ballSensorApp.c **** 
  22:ballSensorApp.c **** 		for(i=0;i<(1 << (N_Sample));i++)    //Så længe i er mindre end 1<<N_sample  (1*2^10) = 1024
  23:ballSensorApp.c **** 		{
  24:ballSensorApp.c **** 			Control_Reg_1_Control=1;
  25:ballSensorApp.c **** 			while(Control_Reg_1_Control);   // Hvad fanden sker der her?? WHILE så længe control register 
  26:ballSensorApp.c **** 		}
  27:ballSensorApp.c ****         
ARM GAS  C:\Users\CHRIST~1\AppData\Local\Temp\ccfrOZ4v.s 			page 2


  28:ballSensorApp.c **** 		V_Sample_AVG = V_Sample_SUM_1 >> (N_Sample);     // V_Sample_AVG er lig med 0 >> 10 (10*2^0) = 10
  29:ballSensorApp.c ****         
  30:ballSensorApp.c **** 		if(V_Sample_SUM_2>((float)V_Sample_AVG)*((float)V_Sample_AVG))
  31:ballSensorApp.c **** 		{
  32:ballSensorApp.c **** 			V_Sample_VAR=(V_Sample_SUM_2/( 1 << N_Sample))-((float)V_Sample_AVG)*((float)V_Sample_AVG);
  33:ballSensorApp.c **** 		}
  34:ballSensorApp.c **** 		else
  35:ballSensorApp.c **** 		{
  36:ballSensorApp.c **** 			V_Sample_VAR=0;
  37:ballSensorApp.c **** 		}
  38:ballSensorApp.c ****         
  39:ballSensorApp.c ****         measurements++;
  40:ballSensorApp.c ****         
  41:ballSensorApp.c **** 		return V_Sample_AVG_float=ADC_DelSig_1_CountsTo_Volts(V_Sample_AVG);
  42:ballSensorApp.c ****         
  43:ballSensorApp.c ****         
  44:ballSensorApp.c **** }
  45:ballSensorApp.c ****     
  46:ballSensorApp.c **** void DMA_1_Config()
  47:ballSensorApp.c **** {
  48:ballSensorApp.c **** 	/* Variable declarations for DMA_1 */
  49:ballSensorApp.c **** 	/* Move these variable declarations to the top of the function */
  50:ballSensorApp.c **** 	uint8 DMA_1_Chan;
  51:ballSensorApp.c **** 	uint8 DMA_1_TD[1];
  52:ballSensorApp.c **** 
  53:ballSensorApp.c **** 	/* DMA Configuration for DMA_1 */
  54:ballSensorApp.c **** 	#define DMA_1_BYTES_PER_BURST 2
  55:ballSensorApp.c **** 	#define DMA_1_REQUEST_PER_BURST 1
  56:ballSensorApp.c **** 	#define DMA_1_SRC_BASE (CYDEV_PERIPH_BASE)
  57:ballSensorApp.c **** 	#define DMA_1_DST_BASE (CYDEV_PERIPH_BASE)
  58:ballSensorApp.c **** 	DMA_1_Chan = DMA_1_DmaInitialize(DMA_1_BYTES_PER_BURST, DMA_1_REQUEST_PER_BURST, 
  59:ballSensorApp.c **** 	HI16(DMA_1_SRC_BASE), HI16(DMA_1_DST_BASE));
  60:ballSensorApp.c **** 	DMA_1_TD[0] = CyDmaTdAllocate();
  61:ballSensorApp.c **** 	CyDmaTdSetConfiguration(DMA_1_TD[0], 2, DMA_INVALID_TD, TD_INC_DST_ADR);
  62:ballSensorApp.c **** 	CyDmaTdSetAddress(DMA_1_TD[0], LO16((uint32)ADC_DelSig_1_DEC_SAMP_PTR), LO16((uint32)Filter_1_STAG
  63:ballSensorApp.c **** 	CyDmaChSetInitialTd(DMA_1_Chan, DMA_1_TD[0]);
  64:ballSensorApp.c **** 	CyDmaChEnable(DMA_1_Chan, 1);
  65:ballSensorApp.c **** 
  66:ballSensorApp.c **** }
  67:ballSensorApp.c **** 
  68:ballSensorApp.c **** void DMA_2_Config()
  69:ballSensorApp.c **** {
  70:ballSensorApp.c ****     /* Variable declarations for DMA_2 */
  71:ballSensorApp.c ****     /* Move these variable declarations to the top of the function */
  72:ballSensorApp.c ****     uint8 DMA_2_Chan;
  73:ballSensorApp.c ****     uint8 DMA_2_TD[1];
  74:ballSensorApp.c **** 
  75:ballSensorApp.c ****     /* DMA Configuration for DMA_2 */
  76:ballSensorApp.c ****     #define DMA_2_BYTES_PER_BURST 2
  77:ballSensorApp.c ****     #define DMA_2_REQUEST_PER_BURST 1
  78:ballSensorApp.c ****     #define DMA_2_SRC_BASE (CYDEV_PERIPH_BASE)
  79:ballSensorApp.c ****     #define DMA_2_DST_BASE (CYDEV_SRAM_BASE)
  80:ballSensorApp.c ****     DMA_2_Chan = DMA_2_DmaInitialize(DMA_2_BYTES_PER_BURST, DMA_2_REQUEST_PER_BURST, 
  81:ballSensorApp.c ****     HI16(DMA_2_SRC_BASE), HI16(DMA_2_DST_BASE));
  82:ballSensorApp.c ****     DMA_2_TD[0] = CyDmaTdAllocate();
  83:ballSensorApp.c ****     CyDmaTdSetConfiguration(DMA_2_TD[0], 2, DMA_INVALID_TD,  DMA_2__TD_TERMOUT_EN | TD_INC_SRC_ADR 
  84:ballSensorApp.c ****     CyDmaTdSetAddress(DMA_2_TD[0], LO16((uint32)Filter_1_HOLDAM_PTR), LO16((uint32)V_Sample));
ARM GAS  C:\Users\CHRIST~1\AppData\Local\Temp\ccfrOZ4v.s 			page 3


  85:ballSensorApp.c ****     CyDmaChSetInitialTd(DMA_2_Chan, DMA_2_TD[0]);
  86:ballSensorApp.c ****     CyDmaChEnable(DMA_2_Chan, 1);
  87:ballSensorApp.c **** }
  88:ballSensorApp.c **** 
  89:ballSensorApp.c **** void ballSensorInit()
  90:ballSensorApp.c **** {
  91:ballSensorApp.c **** 	Clock_1_Start();
  92:ballSensorApp.c ****     Opamp_1_Start();
  93:ballSensorApp.c **** 	TIA_1_Start();
  94:ballSensorApp.c ****     UART_1_Start();
  95:ballSensorApp.c **** 	Mixer_1_Start();
  96:ballSensorApp.c **** 	ADC_DelSig_1_Start();
  97:ballSensorApp.c **** 	ADC_DelSig_1_SetCoherency(ADC_DelSig_1_COHER_MID);
  98:ballSensorApp.c **** 	ADC_DelSig_1_StartConvert();
  99:ballSensorApp.c **** 	DMA_1_Config();
 100:ballSensorApp.c **** 	Filter_1_Start();
 101:ballSensorApp.c **** 	Filter_1_SetCoherency(Filter_1_CHANNEL_A, Filter_1_KEY_HIGH);
 102:ballSensorApp.c **** 	DMA_2_Config();
 103:ballSensorApp.c **** 	
 104:ballSensorApp.c **** 	isr_2_StartEx(Sample_int);
 105:ballSensorApp.c ****     //calibrate_StartEx(calibrate_isr);
 106:ballSensorApp.c **** 	Control_Reg_1_Control=0;
 107:ballSensorApp.c **** }
 108:ballSensorApp.c **** 
 109:ballSensorApp.c **** CY_ISR(Sample_int)
 110:ballSensorApp.c **** {
  31              		.loc 1 110 0
  32              		.cfi_startproc
  33              		@ args = 0, pretend = 0, frame = 0
  34              		@ frame_needed = 0, uses_anonymous_args = 0
  35 0000 38B5     		push	{r3, r4, r5, lr}
  36              		.cfi_def_cfa_offset 16
  37              		.cfi_offset 3, -16
  38              		.cfi_offset 4, -12
  39              		.cfi_offset 5, -8
  40              		.cfi_offset 14, -4
 111:ballSensorApp.c **** 	Control_Reg_1_Control=0;
  41              		.loc 1 111 0
  42 0002 0022     		movs	r2, #0
  43 0004 114B     		ldr	r3, .L5
  44 0006 1A70     		strb	r2, [r3]
 112:ballSensorApp.c **** 	V_Sample_SUM_1=V_Sample_SUM_1+V_Sample[0];
  45              		.loc 1 112 0
  46 0008 114B     		ldr	r3, .L5+4
  47 000a B3F90040 		ldrsh	r4, [r3]
  48 000e 114A     		ldr	r2, .L5+8
  49 0010 1368     		ldr	r3, [r2]
  50 0012 2344     		add	r3, r3, r4
  51 0014 1360     		str	r3, [r2]
 113:ballSensorApp.c **** 	V_Sample_SUM_2=V_Sample_SUM_2+(((float)V_Sample[0])*((float)V_Sample[0]));
  52              		.loc 1 113 0
  53 0016 2046     		mov	r0, r4
  54 0018 FFF7FEFF 		bl	__aeabi_i2f
  55              	.LVL0:
  56 001c 0146     		mov	r1, r0
  57 001e FFF7FEFF 		bl	__aeabi_fmul
  58              	.LVL1:
ARM GAS  C:\Users\CHRIST~1\AppData\Local\Temp\ccfrOZ4v.s 			page 4


  59 0022 0D4D     		ldr	r5, .L5+12
  60 0024 2968     		ldr	r1, [r5]	@ float
  61 0026 FFF7FEFF 		bl	__aeabi_fadd
  62              	.LVL2:
  63 002a 2860     		str	r0, [r5]	@ float
 114:ballSensorApp.c **** 	if(V_Sample[0]<V_Sample_MIN)V_Sample_MIN=V_Sample[0];
  64              		.loc 1 114 0
  65 002c 0B4B     		ldr	r3, .L5+16
  66 002e B3F90030 		ldrsh	r3, [r3]
  67 0032 9C42     		cmp	r4, r3
  68 0034 01DA     		bge	.L2
  69              		.loc 1 114 0 is_stmt 0 discriminator 1
  70 0036 094B     		ldr	r3, .L5+16
  71 0038 1C80     		strh	r4, [r3]	@ movhi
  72              	.L2:
 115:ballSensorApp.c **** 	if(V_Sample[0]>V_Sample_MAX)V_Sample_MAX=V_Sample[0];
  73              		.loc 1 115 0 is_stmt 1
  74 003a 094B     		ldr	r3, .L5+20
  75 003c B3F90030 		ldrsh	r3, [r3]
  76 0040 9C42     		cmp	r4, r3
  77 0042 01DD     		ble	.L1
  78              		.loc 1 115 0 is_stmt 0 discriminator 1
  79 0044 064B     		ldr	r3, .L5+20
  80 0046 1C80     		strh	r4, [r3]	@ movhi
  81              	.L1:
  82 0048 38BD     		pop	{r3, r4, r5, pc}
  83              	.L6:
  84 004a 00BF     		.align	2
  85              	.L5:
  86 004c 7A640040 		.word	1073767546
  87 0050 00000000 		.word	V_Sample
  88 0054 00000000 		.word	V_Sample_SUM_1
  89 0058 00000000 		.word	V_Sample_SUM_2
  90 005c 00000000 		.word	V_Sample_MIN
  91 0060 00000000 		.word	V_Sample_MAX
  92              		.cfi_endproc
  93              	.LFE69:
  94              		.size	Sample_int, .-Sample_int
  95              		.global	__aeabi_f2d
  96              		.global	__aeabi_dadd
  97              		.global	__aeabi_dcmpgt
  98              		.section	.text.CompareValues,"ax",%progbits
  99              		.align	2
 100              		.global	CompareValues
 101              		.thumb
 102              		.thumb_func
 103              		.type	CompareValues, %function
 104              	CompareValues:
 105              	.LFB64:
   4:ballSensorApp.c ****     if (measurements %5 == 0 || measurements == 1){
 106              		.loc 1 4 0 is_stmt 1
 107              		.cfi_startproc
 108              		@ args = 0, pretend = 0, frame = 0
 109              		@ frame_needed = 0, uses_anonymous_args = 0
 110 0000 38B5     		push	{r3, r4, r5, lr}
 111              		.cfi_def_cfa_offset 16
 112              		.cfi_offset 3, -16
ARM GAS  C:\Users\CHRIST~1\AppData\Local\Temp\ccfrOZ4v.s 			page 5


 113              		.cfi_offset 4, -12
 114              		.cfi_offset 5, -8
 115              		.cfi_offset 14, -4
   5:ballSensorApp.c ****             if (V_Sample_AVG_float > max_value + ballEffect){
 116              		.loc 1 5 0
 117 0002 1D4B     		ldr	r3, .L14+8
 118 0004 1A68     		ldr	r2, [r3]
 119 0006 1D4B     		ldr	r3, .L14+12
 120 0008 83FB0231 		smull	r3, r1, r3, r2
 121 000c D317     		asrs	r3, r2, #31
 122 000e C3EB6103 		rsb	r3, r3, r1, asr #1
 123 0012 03EB8303 		add	r3, r3, r3, lsl #2
 124 0016 9A42     		cmp	r2, r3
 125 0018 01D0     		beq	.L8
   5:ballSensorApp.c ****             if (V_Sample_AVG_float > max_value + ballEffect){
 126              		.loc 1 5 0 is_stmt 0 discriminator 1
 127 001a 012A     		cmp	r2, #1
 128 001c 25D1     		bne	.L7
 129              	.L8:
   6:ballSensorApp.c ****                 LED_Write(1);
 130              		.loc 1 6 0 is_stmt 1
 131 001e 184B     		ldr	r3, .L14+16
 132 0020 1868     		ldr	r0, [r3]	@ float
 133 0022 FFF7FEFF 		bl	__aeabi_f2d
 134              	.LVL3:
 135 0026 0446     		mov	r4, r0
 136 0028 0D46     		mov	r5, r1
 137 002a 164B     		ldr	r3, .L14+20
 138 002c 1868     		ldr	r0, [r3]	@ float
 139 002e FFF7FEFF 		bl	__aeabi_f2d
 140              	.LVL4:
 141 0032 0FA3     		adr	r3, .L14
 142 0034 D3E90023 		ldrd	r2, [r3]
 143 0038 FFF7FEFF 		bl	__aeabi_dadd
 144              	.LVL5:
 145 003c 0246     		mov	r2, r0
 146 003e 0B46     		mov	r3, r1
 147 0040 2046     		mov	r0, r4
 148 0042 2946     		mov	r1, r5
 149 0044 FFF7FEFF 		bl	__aeabi_dcmpgt
 150              	.LVL6:
 151 0048 40B1     		cbz	r0, .L10
   7:ballSensorApp.c ****                 PWM_motor_Stop();
 152              		.loc 1 7 0
 153 004a 0120     		movs	r0, #1
 154 004c FFF7FEFF 		bl	LED_Write
 155              	.LVL7:
   8:ballSensorApp.c ****                 CyDelay(5000);
 156              		.loc 1 8 0
 157 0050 FFF7FEFF 		bl	PWM_motor_Stop
 158              	.LVL8:
   9:ballSensorApp.c ****             }
 159              		.loc 1 9 0
 160 0054 41F28830 		movw	r0, #5000
 161 0058 FFF7FEFF 		bl	CyDelay
 162              	.LVL9:
 163              	.L10:
ARM GAS  C:\Users\CHRIST~1\AppData\Local\Temp\ccfrOZ4v.s 			page 6


  11:ballSensorApp.c ****     }
 164              		.loc 1 11 0
 165 005c 0A4B     		ldr	r3, .L14+24
 166 005e B3F90000 		ldrsh	r0, [r3]
 167 0062 FFF7FEFF 		bl	ADC_DelSig_1_CountsTo_Volts
 168              	.LVL10:
 169 0066 074B     		ldr	r3, .L14+20
 170 0068 1860     		str	r0, [r3]	@ float
 171              	.L7:
 172 006a 38BD     		pop	{r3, r4, r5, pc}
 173              	.L15:
 174 006c AFF30080 		.align	3
 175              	.L14:
 176 0070 FCA9F1D2 		.word	-755914244
 177 0074 4D62603F 		.word	1063281229
 178 0078 00000000 		.word	measurements
 179 007c 67666666 		.word	1717986919
 180 0080 00000000 		.word	V_Sample_AVG_float
 181 0084 00000000 		.word	max_value
 182 0088 00000000 		.word	V_Sample_AVG
 183              		.cfi_endproc
 184              	.LFE64:
 185              		.size	CompareValues, .-CompareValues
 186              		.global	__aeabi_fcmplt
 187              		.global	__aeabi_fsub
 188              		.section	.text.Measure,"ax",%progbits
 189              		.align	2
 190              		.global	Measure
 191              		.thumb
 192              		.thumb_func
 193              		.type	Measure, %function
 194              	Measure:
 195              	.LFB65:
  15:ballSensorApp.c ****     
 196              		.loc 1 15 0
 197              		.cfi_startproc
 198              		@ args = 0, pretend = 0, frame = 0
 199              		@ frame_needed = 0, uses_anonymous_args = 0
  17:ballSensorApp.c **** 		V_Sample_SUM_2=0;
 200              		.loc 1 17 0
 201 0000 0023     		movs	r3, #0
 202 0002 264A     		ldr	r2, .L26
 203 0004 1360     		str	r3, [r2]
  18:ballSensorApp.c **** 		V_Sample_MIN= ((1<<15)-1) ; // int: ((1<<15)-1) uint: 0-1 (32767)
 204              		.loc 1 18 0
 205 0006 0021     		movs	r1, #0
 206 0008 254A     		ldr	r2, .L26+4
 207 000a 1160     		str	r1, [r2]	@ float
  19:ballSensorApp.c **** 		V_Sample_MAX=1 << 15;       // int: 1<<15       uint: 0   (32768)
 208              		.loc 1 19 0
 209 000c 47F6FF71 		movw	r1, #32767
 210 0010 244A     		ldr	r2, .L26+8
 211 0012 1180     		strh	r1, [r2]	@ movhi
  20:ballSensorApp.c **** 
 212              		.loc 1 20 0
 213 0014 4FF40041 		mov	r1, #32768
 214 0018 234A     		ldr	r2, .L26+12
ARM GAS  C:\Users\CHRIST~1\AppData\Local\Temp\ccfrOZ4v.s 			page 7


 215 001a 1180     		strh	r1, [r2]	@ movhi
  22:ballSensorApp.c **** 		{
 216              		.loc 1 22 0
 217 001c 234A     		ldr	r2, .L26+16
 218 001e 1380     		strh	r3, [r2]	@ movhi
 219 0020 0BE0     		b	.L17
 220              	.L19:
  24:ballSensorApp.c **** 			while(Control_Reg_1_Control);   // Hvad fanden sker der her?? WHILE så længe control register 
 221              		.loc 1 24 0
 222 0022 0122     		movs	r2, #1
 223 0024 224B     		ldr	r3, .L26+20
 224 0026 1A70     		strb	r2, [r3]
 225              	.L18:
  25:ballSensorApp.c **** 		}
 226              		.loc 1 25 0 discriminator 1
 227 0028 214B     		ldr	r3, .L26+20
 228 002a 1B78     		ldrb	r3, [r3]	@ zero_extendqisi2
 229 002c 13F0FF0F 		tst	r3, #255
 230 0030 FAD1     		bne	.L18
  22:ballSensorApp.c **** 		{
 231              		.loc 1 22 0 discriminator 2
 232 0032 1E4A     		ldr	r2, .L26+16
 233 0034 1388     		ldrh	r3, [r2]
 234 0036 0133     		adds	r3, r3, #1
 235 0038 1380     		strh	r3, [r2]	@ movhi
 236              	.L17:
  22:ballSensorApp.c **** 		{
 237              		.loc 1 22 0 is_stmt 0 discriminator 1
 238 003a 1C4B     		ldr	r3, .L26+16
 239 003c 1B88     		ldrh	r3, [r3]
 240 003e B3F5806F 		cmp	r3, #1024
 241 0042 EED3     		bcc	.L19
  15:ballSensorApp.c ****     
 242              		.loc 1 15 0 is_stmt 1
 243 0044 70B5     		push	{r4, r5, r6, lr}
 244              		.cfi_def_cfa_offset 16
 245              		.cfi_offset 4, -16
 246              		.cfi_offset 5, -12
 247              		.cfi_offset 6, -8
 248              		.cfi_offset 14, -4
  28:ballSensorApp.c ****         
 249              		.loc 1 28 0
 250 0046 154B     		ldr	r3, .L26
 251 0048 1C68     		ldr	r4, [r3]
 252 004a 44F38F24 		sbfx	r4, r4, #10, #16
 253 004e 194B     		ldr	r3, .L26+24
 254 0050 1C80     		strh	r4, [r3]	@ movhi
  30:ballSensorApp.c **** 		{
 255              		.loc 1 30 0
 256 0052 2046     		mov	r0, r4
 257 0054 FFF7FEFF 		bl	__aeabi_i2f
 258              	.LVL11:
 259 0058 0146     		mov	r1, r0
 260 005a FFF7FEFF 		bl	__aeabi_fmul
 261              	.LVL12:
 262 005e 0646     		mov	r6, r0
 263 0060 0F4B     		ldr	r3, .L26+4
ARM GAS  C:\Users\CHRIST~1\AppData\Local\Temp\ccfrOZ4v.s 			page 8


 264 0062 1D68     		ldr	r5, [r3]	@ float
 265 0064 2946     		mov	r1, r5
 266 0066 FFF7FEFF 		bl	__aeabi_fcmplt
 267              	.LVL13:
 268 006a 50B1     		cbz	r0, .L24
  32:ballSensorApp.c **** 		}
 269              		.loc 1 32 0
 270 006c 4FF06A51 		mov	r1, #981467136
 271 0070 2846     		mov	r0, r5
 272 0072 FFF7FEFF 		bl	__aeabi_fmul
 273              	.LVL14:
 274 0076 3146     		mov	r1, r6
 275 0078 FFF7FEFF 		bl	__aeabi_fsub
 276              	.LVL15:
 277 007c 0E4B     		ldr	r3, .L26+28
 278 007e 1860     		str	r0, [r3]	@ float
 279 0080 02E0     		b	.L22
 280              	.L24:
  36:ballSensorApp.c **** 		}
 281              		.loc 1 36 0
 282 0082 0022     		movs	r2, #0
 283 0084 0C4B     		ldr	r3, .L26+28
 284 0086 1A60     		str	r2, [r3]	@ float
 285              	.L22:
  39:ballSensorApp.c ****         
 286              		.loc 1 39 0
 287 0088 0C4A     		ldr	r2, .L26+32
 288 008a 1368     		ldr	r3, [r2]
 289 008c 0133     		adds	r3, r3, #1
 290 008e 1360     		str	r3, [r2]
  41:ballSensorApp.c ****         
 291              		.loc 1 41 0
 292 0090 2046     		mov	r0, r4
 293 0092 FFF7FEFF 		bl	ADC_DelSig_1_CountsTo_Volts
 294              	.LVL16:
 295 0096 0A4B     		ldr	r3, .L26+36
 296 0098 1860     		str	r0, [r3]	@ float
  44:ballSensorApp.c ****     
 297              		.loc 1 44 0
 298 009a 70BD     		pop	{r4, r5, r6, pc}
 299              	.L27:
 300              		.align	2
 301              	.L26:
 302 009c 00000000 		.word	V_Sample_SUM_1
 303 00a0 00000000 		.word	V_Sample_SUM_2
 304 00a4 00000000 		.word	V_Sample_MIN
 305 00a8 00000000 		.word	V_Sample_MAX
 306 00ac 00000000 		.word	i
 307 00b0 7A640040 		.word	1073767546
 308 00b4 00000000 		.word	V_Sample_AVG
 309 00b8 00000000 		.word	V_Sample_VAR
 310 00bc 00000000 		.word	measurements
 311 00c0 00000000 		.word	V_Sample_AVG_float
 312              		.cfi_endproc
 313              	.LFE65:
 314              		.size	Measure, .-Measure
 315              		.section	.text.DMA_1_Config,"ax",%progbits
ARM GAS  C:\Users\CHRIST~1\AppData\Local\Temp\ccfrOZ4v.s 			page 9


 316              		.align	2
 317              		.global	DMA_1_Config
 318              		.thumb
 319              		.thumb_func
 320              		.type	DMA_1_Config, %function
 321              	DMA_1_Config:
 322              	.LFB66:
  47:ballSensorApp.c **** 	/* Variable declarations for DMA_1 */
 323              		.loc 1 47 0
 324              		.cfi_startproc
 325              		@ args = 0, pretend = 0, frame = 0
 326              		@ frame_needed = 0, uses_anonymous_args = 0
 327 0000 38B5     		push	{r3, r4, r5, lr}
 328              		.cfi_def_cfa_offset 16
 329              		.cfi_offset 3, -16
 330              		.cfi_offset 4, -12
 331              		.cfi_offset 5, -8
 332              		.cfi_offset 14, -4
  58:ballSensorApp.c **** 	HI16(DMA_1_SRC_BASE), HI16(DMA_1_DST_BASE));
 333              		.loc 1 58 0
 334 0002 4FF48043 		mov	r3, #16384
 335 0006 1A46     		mov	r2, r3
 336 0008 0121     		movs	r1, #1
 337 000a 0220     		movs	r0, #2
 338 000c FFF7FEFF 		bl	DMA_1_DmaInitialize
 339              	.LVL17:
 340 0010 0446     		mov	r4, r0
 341              	.LVL18:
  60:ballSensorApp.c **** 	CyDmaTdSetConfiguration(DMA_1_TD[0], 2, DMA_INVALID_TD, TD_INC_DST_ADR);
 342              		.loc 1 60 0
 343 0012 FFF7FEFF 		bl	CyDmaTdAllocate
 344              	.LVL19:
 345 0016 0546     		mov	r5, r0
  61:ballSensorApp.c **** 	CyDmaTdSetAddress(DMA_1_TD[0], LO16((uint32)ADC_DelSig_1_DEC_SAMP_PTR), LO16((uint32)Filter_1_STAG
 346              		.loc 1 61 0
 347 0018 0223     		movs	r3, #2
 348 001a FF22     		movs	r2, #255
 349 001c 1946     		mov	r1, r3
 350 001e FFF7FEFF 		bl	CyDmaTdSetConfiguration
 351              	.LVL20:
  62:ballSensorApp.c **** 	CyDmaChSetInitialTd(DMA_1_Chan, DMA_1_TD[0]);
 352              		.loc 1 62 0
 353 0022 4CF2A172 		movw	r2, #51105
 354 0026 44F61061 		movw	r1, #19984
 355 002a 2846     		mov	r0, r5
 356 002c FFF7FEFF 		bl	CyDmaTdSetAddress
 357              	.LVL21:
  63:ballSensorApp.c **** 	CyDmaChEnable(DMA_1_Chan, 1);
 358              		.loc 1 63 0
 359 0030 2946     		mov	r1, r5
 360 0032 2046     		mov	r0, r4
 361 0034 FFF7FEFF 		bl	CyDmaChSetInitialTd
 362              	.LVL22:
  64:ballSensorApp.c **** 
 363              		.loc 1 64 0
 364 0038 0121     		movs	r1, #1
 365 003a 2046     		mov	r0, r4
ARM GAS  C:\Users\CHRIST~1\AppData\Local\Temp\ccfrOZ4v.s 			page 10


 366 003c FFF7FEFF 		bl	CyDmaChEnable
 367              	.LVL23:
 368 0040 38BD     		pop	{r3, r4, r5, pc}
 369              		.cfi_endproc
 370              	.LFE66:
 371              		.size	DMA_1_Config, .-DMA_1_Config
 372 0042 00BF     		.section	.text.DMA_2_Config,"ax",%progbits
 373              		.align	2
 374              		.global	DMA_2_Config
 375              		.thumb
 376              		.thumb_func
 377              		.type	DMA_2_Config, %function
 378              	DMA_2_Config:
 379              	.LFB67:
  69:ballSensorApp.c ****     /* Variable declarations for DMA_2 */
 380              		.loc 1 69 0
 381              		.cfi_startproc
 382              		@ args = 0, pretend = 0, frame = 0
 383              		@ frame_needed = 0, uses_anonymous_args = 0
 384 0000 38B5     		push	{r3, r4, r5, lr}
 385              		.cfi_def_cfa_offset 16
 386              		.cfi_offset 3, -16
 387              		.cfi_offset 4, -12
 388              		.cfi_offset 5, -8
 389              		.cfi_offset 14, -4
  80:ballSensorApp.c ****     HI16(DMA_2_SRC_BASE), HI16(DMA_2_DST_BASE));
 390              		.loc 1 80 0
 391 0002 41F6FF73 		movw	r3, #8191
 392 0006 4FF48042 		mov	r2, #16384
 393 000a 0121     		movs	r1, #1
 394 000c 0220     		movs	r0, #2
 395 000e FFF7FEFF 		bl	DMA_2_DmaInitialize
 396              	.LVL24:
 397 0012 0446     		mov	r4, r0
 398              	.LVL25:
  82:ballSensorApp.c ****     CyDmaTdSetConfiguration(DMA_2_TD[0], 2, DMA_INVALID_TD,  DMA_2__TD_TERMOUT_EN | TD_INC_SRC_ADR 
 399              		.loc 1 82 0
 400 0014 FFF7FEFF 		bl	CyDmaTdAllocate
 401              	.LVL26:
 402 0018 0546     		mov	r5, r0
  83:ballSensorApp.c ****     CyDmaTdSetAddress(DMA_2_TD[0], LO16((uint32)Filter_1_HOLDAM_PTR), LO16((uint32)V_Sample));
 403              		.loc 1 83 0
 404 001a 0523     		movs	r3, #5
 405 001c FF22     		movs	r2, #255
 406 001e 0221     		movs	r1, #2
 407 0020 FFF7FEFF 		bl	CyDmaTdSetConfiguration
 408              	.LVL27:
  84:ballSensorApp.c ****     CyDmaChSetInitialTd(DMA_2_Chan, DMA_2_TD[0]);
 409              		.loc 1 84 0
 410 0024 074A     		ldr	r2, .L32
 411 0026 92B2     		uxth	r2, r2
 412 0028 4CF2A971 		movw	r1, #51113
 413 002c 2846     		mov	r0, r5
 414 002e FFF7FEFF 		bl	CyDmaTdSetAddress
 415              	.LVL28:
  85:ballSensorApp.c ****     CyDmaChEnable(DMA_2_Chan, 1);
 416              		.loc 1 85 0
ARM GAS  C:\Users\CHRIST~1\AppData\Local\Temp\ccfrOZ4v.s 			page 11


 417 0032 2946     		mov	r1, r5
 418 0034 2046     		mov	r0, r4
 419 0036 FFF7FEFF 		bl	CyDmaChSetInitialTd
 420              	.LVL29:
  86:ballSensorApp.c **** }
 421              		.loc 1 86 0
 422 003a 0121     		movs	r1, #1
 423 003c 2046     		mov	r0, r4
 424 003e FFF7FEFF 		bl	CyDmaChEnable
 425              	.LVL30:
 426 0042 38BD     		pop	{r3, r4, r5, pc}
 427              	.LVL31:
 428              	.L33:
 429              		.align	2
 430              	.L32:
 431 0044 00000000 		.word	V_Sample
 432              		.cfi_endproc
 433              	.LFE67:
 434              		.size	DMA_2_Config, .-DMA_2_Config
 435              		.section	.text.ballSensorInit,"ax",%progbits
 436              		.align	2
 437              		.global	ballSensorInit
 438              		.thumb
 439              		.thumb_func
 440              		.type	ballSensorInit, %function
 441              	ballSensorInit:
 442              	.LFB68:
  90:ballSensorApp.c **** 	Clock_1_Start();
 443              		.loc 1 90 0
 444              		.cfi_startproc
 445              		@ args = 0, pretend = 0, frame = 0
 446              		@ frame_needed = 0, uses_anonymous_args = 0
 447 0000 08B5     		push	{r3, lr}
 448              		.cfi_def_cfa_offset 8
 449              		.cfi_offset 3, -8
 450              		.cfi_offset 14, -4
  91:ballSensorApp.c ****     Opamp_1_Start();
 451              		.loc 1 91 0
 452 0002 FFF7FEFF 		bl	Clock_1_Start
 453              	.LVL32:
  92:ballSensorApp.c **** 	TIA_1_Start();
 454              		.loc 1 92 0
 455 0006 FFF7FEFF 		bl	Opamp_1_Start
 456              	.LVL33:
  93:ballSensorApp.c ****     UART_1_Start();
 457              		.loc 1 93 0
 458 000a FFF7FEFF 		bl	TIA_1_Start
 459              	.LVL34:
  94:ballSensorApp.c **** 	Mixer_1_Start();
 460              		.loc 1 94 0
 461 000e FFF7FEFF 		bl	UART_1_Start
 462              	.LVL35:
  95:ballSensorApp.c **** 	ADC_DelSig_1_Start();
 463              		.loc 1 95 0
 464 0012 FFF7FEFF 		bl	Mixer_1_Start
 465              	.LVL36:
  96:ballSensorApp.c **** 	ADC_DelSig_1_SetCoherency(ADC_DelSig_1_COHER_MID);
ARM GAS  C:\Users\CHRIST~1\AppData\Local\Temp\ccfrOZ4v.s 			page 12


 466              		.loc 1 96 0
 467 0016 FFF7FEFF 		bl	ADC_DelSig_1_Start
 468              	.LVL37:
  97:ballSensorApp.c **** 	ADC_DelSig_1_StartConvert();
 469              		.loc 1 97 0
 470 001a 0220     		movs	r0, #2
 471 001c FFF7FEFF 		bl	ADC_DelSig_1_SetCoherency
 472              	.LVL38:
  98:ballSensorApp.c **** 	DMA_1_Config();
 473              		.loc 1 98 0
 474 0020 FFF7FEFF 		bl	ADC_DelSig_1_StartConvert
 475              	.LVL39:
  99:ballSensorApp.c **** 	Filter_1_Start();
 476              		.loc 1 99 0
 477 0024 FFF7FEFF 		bl	DMA_1_Config
 478              	.LVL40:
 100:ballSensorApp.c **** 	Filter_1_SetCoherency(Filter_1_CHANNEL_A, Filter_1_KEY_HIGH);
 479              		.loc 1 100 0
 480 0028 FFF7FEFF 		bl	Filter_1_Start
 481              	.LVL41:
 101:ballSensorApp.c **** 	DMA_2_Config();
 482              		.loc 1 101 0
 483 002c 0221     		movs	r1, #2
 484 002e 0020     		movs	r0, #0
 485 0030 FFF7FEFF 		bl	Filter_1_SetCoherency
 486              	.LVL42:
 102:ballSensorApp.c **** 	
 487              		.loc 1 102 0
 488 0034 FFF7FEFF 		bl	DMA_2_Config
 489              	.LVL43:
 104:ballSensorApp.c ****     //calibrate_StartEx(calibrate_isr);
 490              		.loc 1 104 0
 491 0038 0348     		ldr	r0, .L36
 492 003a FFF7FEFF 		bl	isr_2_StartEx
 493              	.LVL44:
 106:ballSensorApp.c **** }
 494              		.loc 1 106 0
 495 003e 0022     		movs	r2, #0
 496 0040 024B     		ldr	r3, .L36+4
 497 0042 1A70     		strb	r2, [r3]
 498 0044 08BD     		pop	{r3, pc}
 499              	.L37:
 500 0046 00BF     		.align	2
 501              	.L36:
 502 0048 00000000 		.word	Sample_int
 503 004c 7A640040 		.word	1073767546
 504              		.cfi_endproc
 505              	.LFE68:
 506              		.size	ballSensorInit, .-ballSensorInit
 507              		.comm	max_value,4,4
 508              		.comm	measurements,4,4
 509              		.comm	numberOfMeasurements,255,4
 510              		.comm	value,255,4
 511              		.comm	i,2,2
 512              		.comm	V_Sample_AVG_float,4,4
 513              		.comm	V_Sample_VAR,4,4
 514              		.comm	V_Sample_AVG,2,2
ARM GAS  C:\Users\CHRIST~1\AppData\Local\Temp\ccfrOZ4v.s 			page 13


 515              		.comm	V_Sample_MAX,2,2
 516              		.comm	V_Sample_MIN,2,2
 517              		.comm	V_Sample_SUM_2,4,4
 518              		.comm	V_Sample_SUM_1,4,4
 519              		.comm	V_Sample,2,4
 520              		.text
 521              	.Letext0:
 522              		.file 2 "c:\\program files (x86)\\cypress\\psoc creator\\4.2\\psoc creator\\import\\gnu\\arm\\5.4.
 523              		.file 3 "c:\\program files (x86)\\cypress\\psoc creator\\4.2\\psoc creator\\import\\gnu\\arm\\5.4.
 524              		.file 4 "Generated_Source\\PSoC5/cytypes.h"
 525              		.file 5 "Generated_Source\\PSoC5/core_cm3.h"
 526              		.file 6 "ballSensorApp.h"
 527              		.file 7 "Generated_Source\\PSoC5/LED.h"
 528              		.file 8 "Generated_Source\\PSoC5/PWM_motor.h"
 529              		.file 9 "Generated_Source\\PSoC5/CyLib.h"
 530              		.file 10 "Generated_Source\\PSoC5/ADC_DelSig_1.h"
 531              		.file 11 "Generated_Source\\PSoC5/DMA_1_dma.h"
 532              		.file 12 "Generated_Source\\PSoC5/CYDMAC.H"
 533              		.file 13 "Generated_Source\\PSoC5/DMA_2_dma.h"
 534              		.file 14 "Generated_Source\\PSoC5/Clock_1.h"
 535              		.file 15 "Generated_Source\\PSoC5/Opamp_1.h"
 536              		.file 16 "Generated_Source\\PSoC5/TIA_1.h"
 537              		.file 17 "Generated_Source\\PSoC5/UART_1.h"
 538              		.file 18 "Generated_Source\\PSoC5/Mixer_1.h"
 539              		.file 19 "Generated_Source\\PSoC5/Filter_1.h"
 540              		.file 20 "Generated_Source\\PSoC5/isr_2.h"