ARM GAS  C:\Users\LUCASI~1\AppData\Local\Temp\cc66tKMa.s 			page 1


   1              		.syntax unified
   2              		.cpu cortex-m3
   3              		.fpu softvfp
   4              		.eabi_attribute 20, 1
   5              		.eabi_attribute 21, 1
   6              		.eabi_attribute 23, 3
   7              		.eabi_attribute 24, 1
   8              		.eabi_attribute 25, 1
   9              		.eabi_attribute 26, 1
  10              		.eabi_attribute 30, 1
  11              		.eabi_attribute 34, 1
  12              		.eabi_attribute 18, 4
  13              		.thumb
  14              		.syntax unified
  15              		.file	"edgeSensorApp.c"
  16              		.text
  17              	.Ltext0:
  18              		.cfi_sections	.debug_frame
  19              		.section	.text.echoInt1_handler,"ax",%progbits
  20              		.align	2
  21              		.global	echoInt1_handler
  22              		.thumb
  23              		.thumb_func
  24              		.type	echoInt1_handler, %function
  25              	echoInt1_handler:
  26              	.LFB65:
  27              		.file 1 "edgeSensorApp.c"
   1:edgeSensorApp.c **** #include "edgeSensorApp.h"
   2:edgeSensorApp.c **** 
   3:edgeSensorApp.c **** volatile uint32_t pulseWidth;
   4:edgeSensorApp.c **** volatile int time_us;
   5:edgeSensorApp.c **** volatile int e1 = 0, e2 = 0, e3 = 0, e4 = 0;
   6:edgeSensorApp.c **** volatile int status = 0;
   7:edgeSensorApp.c **** 
   8:edgeSensorApp.c **** CY_ISR(pulseInt_handler)
   9:edgeSensorApp.c **** {
  10:edgeSensorApp.c ****     triggerPWM_Stop();
  11:edgeSensorApp.c ****     //Reads number of counts in pulse
  12:edgeSensorApp.c ****     pulseWidth = pulseCounter_ReadCapture();
  13:edgeSensorApp.c ****     //Converts data to an integer of us
  14:edgeSensorApp.c ****     time_us = (uint32_t)pulseWidth * 2;
  15:edgeSensorApp.c ****     //About 30 cm    
  16:edgeSensorApp.c ****     if(time_us > 1800)
  17:edgeSensorApp.c ****     {
  18:edgeSensorApp.c ****         status = status + 1;
  19:edgeSensorApp.c ****     }
  20:edgeSensorApp.c ****     
  21:edgeSensorApp.c ****     switch (status)
  22:edgeSensorApp.c ****     {
  23:edgeSensorApp.c ****         case 11:    //LED_Write(1);     //Forreste venstre sensor
  24:edgeSensorApp.c ****                     DelayBased180Turn();
  25:edgeSensorApp.c ****                 break;
  26:edgeSensorApp.c ****         case 21:    //LED_Write(1);     //Venstre sensor
  27:edgeSensorApp.c ****                     DelayBased90Turn(1);
  28:edgeSensorApp.c ****                 break;
  29:edgeSensorApp.c ****         case 31:    //LED_Write(1);     //Højre sensor
  30:edgeSensorApp.c ****                     DelayBased90Turn(2);
ARM GAS  C:\Users\LUCASI~1\AppData\Local\Temp\cc66tKMa.s 			page 2


  31:edgeSensorApp.c ****                 break;
  32:edgeSensorApp.c ****         case 41:    //LED_Write(1);     //Forreste højre sensor
  33:edgeSensorApp.c ****                     DelayBased180Turn();
  34:edgeSensorApp.c ****                 break;
  35:edgeSensorApp.c ****         default:    //LED_Write(0);
  36:edgeSensorApp.c ****                     driveForwards();
  37:edgeSensorApp.c ****                 break;
  38:edgeSensorApp.c ****     }
  39:edgeSensorApp.c ****     
  40:edgeSensorApp.c ****     //Resetting variables
  41:edgeSensorApp.c ****     getStatus();
  42:edgeSensorApp.c ****     //Clear capture flag
  43:edgeSensorApp.c ****     pulseCounter_ReadStatusRegister();
  44:edgeSensorApp.c ****     triggerPWM_Start();
  45:edgeSensorApp.c **** }
  46:edgeSensorApp.c **** 
  47:edgeSensorApp.c **** CY_ISR(echoInt1_handler)
  48:edgeSensorApp.c **** {
  28              		.loc 1 48 0
  29              		.cfi_startproc
  30              		@ args = 0, pretend = 0, frame = 0
  31              		@ frame_needed = 0, uses_anonymous_args = 0
  32              		@ link register save eliminated.
  49:edgeSensorApp.c ****     e1 = 1;
  33              		.loc 1 49 0
  34 0000 074B     		ldr	r3, .L3
  35 0002 0122     		movs	r2, #1
  36 0004 1A60     		str	r2, [r3]
  50:edgeSensorApp.c ****     if((e1+e2+e3+e4) == 4 )
  37              		.loc 1 50 0
  38 0006 1968     		ldr	r1, [r3]
  39 0008 5A68     		ldr	r2, [r3, #4]
  40 000a 1144     		add	r1, r1, r2
  41 000c 9A68     		ldr	r2, [r3, #8]
  42 000e 0A44     		add	r2, r2, r1
  43 0010 DB68     		ldr	r3, [r3, #12]
  44 0012 1344     		add	r3, r3, r2
  45 0014 042B     		cmp	r3, #4
  46 0016 02D1     		bne	.L1
  51:edgeSensorApp.c ****     {
  52:edgeSensorApp.c ****         status = 10;
  47              		.loc 1 52 0
  48 0018 0A22     		movs	r2, #10
  49 001a 014B     		ldr	r3, .L3
  50 001c 1A61     		str	r2, [r3, #16]
  51              	.L1:
  52 001e 7047     		bx	lr
  53              	.L4:
  54              		.align	2
  55              	.L3:
  56 0020 00000000 		.word	.LANCHOR0
  57              		.cfi_endproc
  58              	.LFE65:
  59              		.size	echoInt1_handler, .-echoInt1_handler
  60              		.section	.text.echoInt2_handler,"ax",%progbits
  61              		.align	2
  62              		.global	echoInt2_handler
ARM GAS  C:\Users\LUCASI~1\AppData\Local\Temp\cc66tKMa.s 			page 3


  63              		.thumb
  64              		.thumb_func
  65              		.type	echoInt2_handler, %function
  66              	echoInt2_handler:
  67              	.LFB66:
  53:edgeSensorApp.c ****     }
  54:edgeSensorApp.c **** }
  55:edgeSensorApp.c **** 
  56:edgeSensorApp.c **** CY_ISR(echoInt2_handler)
  57:edgeSensorApp.c **** {
  68              		.loc 1 57 0
  69              		.cfi_startproc
  70              		@ args = 0, pretend = 0, frame = 0
  71              		@ frame_needed = 0, uses_anonymous_args = 0
  72              		@ link register save eliminated.
  58:edgeSensorApp.c ****     e2 = 1;
  73              		.loc 1 58 0
  74 0000 074B     		ldr	r3, .L7
  75 0002 0122     		movs	r2, #1
  76 0004 5A60     		str	r2, [r3, #4]
  59:edgeSensorApp.c ****     if((e1+e2+e3+e4) == 4 )
  77              		.loc 1 59 0
  78 0006 1968     		ldr	r1, [r3]
  79 0008 5A68     		ldr	r2, [r3, #4]
  80 000a 1144     		add	r1, r1, r2
  81 000c 9A68     		ldr	r2, [r3, #8]
  82 000e 0A44     		add	r2, r2, r1
  83 0010 DB68     		ldr	r3, [r3, #12]
  84 0012 1344     		add	r3, r3, r2
  85 0014 042B     		cmp	r3, #4
  86 0016 02D1     		bne	.L5
  60:edgeSensorApp.c ****     {
  61:edgeSensorApp.c ****         status = 20;
  87              		.loc 1 61 0
  88 0018 1422     		movs	r2, #20
  89 001a 014B     		ldr	r3, .L7
  90 001c 1A61     		str	r2, [r3, #16]
  91              	.L5:
  92 001e 7047     		bx	lr
  93              	.L8:
  94              		.align	2
  95              	.L7:
  96 0020 00000000 		.word	.LANCHOR0
  97              		.cfi_endproc
  98              	.LFE66:
  99              		.size	echoInt2_handler, .-echoInt2_handler
 100              		.section	.text.echoInt3_handler,"ax",%progbits
 101              		.align	2
 102              		.global	echoInt3_handler
 103              		.thumb
 104              		.thumb_func
 105              		.type	echoInt3_handler, %function
 106              	echoInt3_handler:
 107              	.LFB67:
  62:edgeSensorApp.c ****     }
  63:edgeSensorApp.c **** }
  64:edgeSensorApp.c **** 
ARM GAS  C:\Users\LUCASI~1\AppData\Local\Temp\cc66tKMa.s 			page 4


  65:edgeSensorApp.c **** CY_ISR(echoInt3_handler)
  66:edgeSensorApp.c **** {   
 108              		.loc 1 66 0
 109              		.cfi_startproc
 110              		@ args = 0, pretend = 0, frame = 0
 111              		@ frame_needed = 0, uses_anonymous_args = 0
 112              		@ link register save eliminated.
  67:edgeSensorApp.c ****     e3 = 1;
 113              		.loc 1 67 0
 114 0000 074B     		ldr	r3, .L11
 115 0002 0122     		movs	r2, #1
 116 0004 9A60     		str	r2, [r3, #8]
  68:edgeSensorApp.c ****     if((e1+e2+e3+e4) == 4 )
 117              		.loc 1 68 0
 118 0006 1968     		ldr	r1, [r3]
 119 0008 5A68     		ldr	r2, [r3, #4]
 120 000a 1144     		add	r1, r1, r2
 121 000c 9A68     		ldr	r2, [r3, #8]
 122 000e 0A44     		add	r2, r2, r1
 123 0010 DB68     		ldr	r3, [r3, #12]
 124 0012 1344     		add	r3, r3, r2
 125 0014 042B     		cmp	r3, #4
 126 0016 02D1     		bne	.L9
  69:edgeSensorApp.c ****     {
  70:edgeSensorApp.c ****         status = 30;
 127              		.loc 1 70 0
 128 0018 1E22     		movs	r2, #30
 129 001a 014B     		ldr	r3, .L11
 130 001c 1A61     		str	r2, [r3, #16]
 131              	.L9:
 132 001e 7047     		bx	lr
 133              	.L12:
 134              		.align	2
 135              	.L11:
 136 0020 00000000 		.word	.LANCHOR0
 137              		.cfi_endproc
 138              	.LFE67:
 139              		.size	echoInt3_handler, .-echoInt3_handler
 140              		.section	.text.echoInt4_handler,"ax",%progbits
 141              		.align	2
 142              		.global	echoInt4_handler
 143              		.thumb
 144              		.thumb_func
 145              		.type	echoInt4_handler, %function
 146              	echoInt4_handler:
 147              	.LFB68:
  71:edgeSensorApp.c ****     }
  72:edgeSensorApp.c **** }
  73:edgeSensorApp.c **** 
  74:edgeSensorApp.c **** CY_ISR(echoInt4_handler)
  75:edgeSensorApp.c **** {
 148              		.loc 1 75 0
 149              		.cfi_startproc
 150              		@ args = 0, pretend = 0, frame = 0
 151              		@ frame_needed = 0, uses_anonymous_args = 0
 152              		@ link register save eliminated.
  76:edgeSensorApp.c ****     e4 = 1;
ARM GAS  C:\Users\LUCASI~1\AppData\Local\Temp\cc66tKMa.s 			page 5


 153              		.loc 1 76 0
 154 0000 074B     		ldr	r3, .L15
 155 0002 0122     		movs	r2, #1
 156 0004 DA60     		str	r2, [r3, #12]
  77:edgeSensorApp.c ****     if((e1+e2+e3+e4) == 4 )
 157              		.loc 1 77 0
 158 0006 1968     		ldr	r1, [r3]
 159 0008 5A68     		ldr	r2, [r3, #4]
 160 000a 1144     		add	r1, r1, r2
 161 000c 9A68     		ldr	r2, [r3, #8]
 162 000e 0A44     		add	r2, r2, r1
 163 0010 DB68     		ldr	r3, [r3, #12]
 164 0012 1344     		add	r3, r3, r2
 165 0014 042B     		cmp	r3, #4
 166 0016 02D1     		bne	.L13
  78:edgeSensorApp.c ****     {
  79:edgeSensorApp.c ****         status = 40;
 167              		.loc 1 79 0
 168 0018 2822     		movs	r2, #40
 169 001a 014B     		ldr	r3, .L15
 170 001c 1A61     		str	r2, [r3, #16]
 171              	.L13:
 172 001e 7047     		bx	lr
 173              	.L16:
 174              		.align	2
 175              	.L15:
 176 0020 00000000 		.word	.LANCHOR0
 177              		.cfi_endproc
 178              	.LFE68:
 179              		.size	echoInt4_handler, .-echoInt4_handler
 180              		.section	.text.edgeSensorInit,"ax",%progbits
 181              		.align	2
 182              		.global	edgeSensorInit
 183              		.thumb
 184              		.thumb_func
 185              		.type	edgeSensorInit, %function
 186              	edgeSensorInit:
 187              	.LFB69:
  80:edgeSensorApp.c ****     }
  81:edgeSensorApp.c **** }
  82:edgeSensorApp.c **** 
  83:edgeSensorApp.c **** void edgeSensorInit()
  84:edgeSensorApp.c **** {
 188              		.loc 1 84 0
 189              		.cfi_startproc
 190              		@ args = 0, pretend = 0, frame = 0
 191              		@ frame_needed = 0, uses_anonymous_args = 0
 192 0000 08B5     		push	{r3, lr}
 193              		.cfi_def_cfa_offset 8
 194              		.cfi_offset 3, -8
 195              		.cfi_offset 14, -4
  85:edgeSensorApp.c ****     //Start 500kHz clock
  86:edgeSensorApp.c ****     CLK_500kHz_Start();
 196              		.loc 1 86 0
 197 0002 FFF7FEFF 		bl	CLK_500kHz_Start
 198              	.LVL0:
  87:edgeSensorApp.c ****     //Start 24MHz clock
ARM GAS  C:\Users\LUCASI~1\AppData\Local\Temp\cc66tKMa.s 			page 6


  88:edgeSensorApp.c ****     CLK_24MHz_Start();
 199              		.loc 1 88 0
 200 0006 FFF7FEFF 		bl	CLK_24MHz_Start
 201              	.LVL1:
  89:edgeSensorApp.c ****     //Start trigger
  90:edgeSensorApp.c ****     triggerPWM_Start();
 202              		.loc 1 90 0
 203 000a FFF7FEFF 		bl	triggerPWM_Start
 204              	.LVL2:
  91:edgeSensorApp.c ****     //Start counters
  92:edgeSensorApp.c ****     pulseCounter_Start();
 205              		.loc 1 92 0
 206 000e FFF7FEFF 		bl	pulseCounter_Start
 207              	.LVL3:
  93:edgeSensorApp.c ****     //Start interrupts
  94:edgeSensorApp.c ****     pulseInt_StartEx(pulseInt_handler);
 208              		.loc 1 94 0
 209 0012 0848     		ldr	r0, .L19
 210 0014 FFF7FEFF 		bl	pulseInt_StartEx
 211              	.LVL4:
  95:edgeSensorApp.c ****     echoInt_1_StartEx(echoInt1_handler);
 212              		.loc 1 95 0
 213 0018 0748     		ldr	r0, .L19+4
 214 001a FFF7FEFF 		bl	echoInt_1_StartEx
 215              	.LVL5:
  96:edgeSensorApp.c ****     echoInt_2_StartEx(echoInt2_handler);
 216              		.loc 1 96 0
 217 001e 0748     		ldr	r0, .L19+8
 218 0020 FFF7FEFF 		bl	echoInt_2_StartEx
 219              	.LVL6:
  97:edgeSensorApp.c ****     echoInt_3_StartEx(echoInt3_handler);
 220              		.loc 1 97 0
 221 0024 0648     		ldr	r0, .L19+12
 222 0026 FFF7FEFF 		bl	echoInt_3_StartEx
 223              	.LVL7:
  98:edgeSensorApp.c ****     echoInt_4_StartEx(echoInt4_handler);
 224              		.loc 1 98 0
 225 002a 0648     		ldr	r0, .L19+16
 226 002c FFF7FEFF 		bl	echoInt_4_StartEx
 227              	.LVL8:
 228 0030 08BD     		pop	{r3, pc}
 229              	.L20:
 230 0032 00BF     		.align	2
 231              	.L19:
 232 0034 00000000 		.word	pulseInt_handler
 233 0038 00000000 		.word	echoInt1_handler
 234 003c 00000000 		.word	echoInt2_handler
 235 0040 00000000 		.word	echoInt3_handler
 236 0044 00000000 		.word	echoInt4_handler
 237              		.cfi_endproc
 238              	.LFE69:
 239              		.size	edgeSensorInit, .-edgeSensorInit
 240              		.section	.text.getStatus,"ax",%progbits
 241              		.align	2
 242              		.global	getStatus
 243              		.thumb
 244              		.thumb_func
ARM GAS  C:\Users\LUCASI~1\AppData\Local\Temp\cc66tKMa.s 			page 7


 245              		.type	getStatus, %function
 246              	getStatus:
 247              	.LFB70:
  99:edgeSensorApp.c **** }
 100:edgeSensorApp.c **** 
 101:edgeSensorApp.c **** int getStatus()
 102:edgeSensorApp.c **** {
 248              		.loc 1 102 0
 249              		.cfi_startproc
 250              		@ args = 0, pretend = 0, frame = 0
 251              		@ frame_needed = 0, uses_anonymous_args = 0
 252              		@ link register save eliminated.
 103:edgeSensorApp.c ****     int tempStatus = status;
 253              		.loc 1 103 0
 254 0000 044B     		ldr	r3, .L22
 255 0002 1869     		ldr	r0, [r3, #16]
 256              	.LVL9:
 104:edgeSensorApp.c ****     
 105:edgeSensorApp.c ****     //Resetting variables
 106:edgeSensorApp.c ****     status = 0;
 257              		.loc 1 106 0
 258 0004 0022     		movs	r2, #0
 259 0006 1A61     		str	r2, [r3, #16]
 107:edgeSensorApp.c ****     e1 = 0;
 260              		.loc 1 107 0
 261 0008 1A60     		str	r2, [r3]
 108:edgeSensorApp.c ****     e2 = 0;
 262              		.loc 1 108 0
 263 000a 5A60     		str	r2, [r3, #4]
 109:edgeSensorApp.c ****     e3 = 0;
 264              		.loc 1 109 0
 265 000c 9A60     		str	r2, [r3, #8]
 110:edgeSensorApp.c ****     e4 = 0;
 266              		.loc 1 110 0
 267 000e DA60     		str	r2, [r3, #12]
 111:edgeSensorApp.c ****     
 112:edgeSensorApp.c ****     return tempStatus;
 113:edgeSensorApp.c **** }...
 268              		.loc 1 113 0
 269 0010 7047     		bx	lr
 270              	.L23:
 271 0012 00BF     		.align	2
 272              	.L22:
 273 0014 00000000 		.word	.LANCHOR0
 274              		.cfi_endproc
 275              	.LFE70:
 276              		.size	getStatus, .-getStatus
 277              		.section	.text.pulseInt_handler,"ax",%progbits
 278              		.align	2
 279              		.global	pulseInt_handler
 280              		.thumb
 281              		.thumb_func
 282              		.type	pulseInt_handler, %function
 283              	pulseInt_handler:
 284              	.LFB64:
   9:edgeSensorApp.c **** {
 285              		.loc 1 9 0
ARM GAS  C:\Users\LUCASI~1\AppData\Local\Temp\cc66tKMa.s 			page 8


 286              		.cfi_startproc
 287              		@ args = 0, pretend = 0, frame = 0
 288              		@ frame_needed = 0, uses_anonymous_args = 0
 289 0000 08B5     		push	{r3, lr}
 290              		.cfi_def_cfa_offset 8
 291              		.cfi_offset 3, -8
 292              		.cfi_offset 14, -4
  10:edgeSensorApp.c ****     triggerPWM_Stop();
 293              		.loc 1 10 0
 294 0002 FFF7FEFF 		bl	triggerPWM_Stop
 295              	.LVL10:
  12:edgeSensorApp.c ****     pulseWidth = pulseCounter_ReadCapture();
 296              		.loc 1 12 0
 297 0006 FFF7FEFF 		bl	pulseCounter_ReadCapture
 298              	.LVL11:
 299 000a 1E4B     		ldr	r3, .L34
 300 000c 1860     		str	r0, [r3]
  14:edgeSensorApp.c ****     time_us = (uint32_t)pulseWidth * 2;
 301              		.loc 1 14 0
 302 000e 1B68     		ldr	r3, [r3]
 303 0010 5B00     		lsls	r3, r3, #1
 304 0012 1D4A     		ldr	r2, .L34+4
 305 0014 1360     		str	r3, [r2]
  16:edgeSensorApp.c ****     if(time_us > 1800)
 306              		.loc 1 16 0
 307 0016 1368     		ldr	r3, [r2]
 308 0018 B3F5E16F 		cmp	r3, #1800
 309 001c 03DD     		ble	.L25
  18:edgeSensorApp.c ****         status = status + 1;
 310              		.loc 1 18 0
 311 001e 1B4A     		ldr	r2, .L34+8
 312 0020 1369     		ldr	r3, [r2, #16]
 313 0022 0133     		adds	r3, r3, #1
 314 0024 1361     		str	r3, [r2, #16]
 315              	.L25:
  21:edgeSensorApp.c ****     switch (status)
 316              		.loc 1 21 0
 317 0026 194B     		ldr	r3, .L34+8
 318 0028 1B69     		ldr	r3, [r3, #16]
 319 002a 0B3B     		subs	r3, r3, #11
 320 002c 1E2B     		cmp	r3, #30
 321 002e 1FD8     		bhi	.L26
 322 0030 DFE803F0 		tbb	[pc, r3]
 323              	.L28:
 324 0034 10       		.byte	(.L27-.L28)/2
 325 0035 1E       		.byte	(.L26-.L28)/2
 326 0036 1E       		.byte	(.L26-.L28)/2
 327 0037 1E       		.byte	(.L26-.L28)/2
 328 0038 1E       		.byte	(.L26-.L28)/2
 329 0039 1E       		.byte	(.L26-.L28)/2
 330 003a 1E       		.byte	(.L26-.L28)/2
 331 003b 1E       		.byte	(.L26-.L28)/2
 332 003c 1E       		.byte	(.L26-.L28)/2
 333 003d 1E       		.byte	(.L26-.L28)/2
 334 003e 13       		.byte	(.L29-.L28)/2
 335 003f 1E       		.byte	(.L26-.L28)/2
 336 0040 1E       		.byte	(.L26-.L28)/2
ARM GAS  C:\Users\LUCASI~1\AppData\Local\Temp\cc66tKMa.s 			page 9


 337 0041 1E       		.byte	(.L26-.L28)/2
 338 0042 1E       		.byte	(.L26-.L28)/2
 339 0043 1E       		.byte	(.L26-.L28)/2
 340 0044 1E       		.byte	(.L26-.L28)/2
 341 0045 1E       		.byte	(.L26-.L28)/2
 342 0046 1E       		.byte	(.L26-.L28)/2
 343 0047 1E       		.byte	(.L26-.L28)/2
 344 0048 17       		.byte	(.L30-.L28)/2
 345 0049 1E       		.byte	(.L26-.L28)/2
 346 004a 1E       		.byte	(.L26-.L28)/2
 347 004b 1E       		.byte	(.L26-.L28)/2
 348 004c 1E       		.byte	(.L26-.L28)/2
 349 004d 1E       		.byte	(.L26-.L28)/2
 350 004e 1E       		.byte	(.L26-.L28)/2
 351 004f 1E       		.byte	(.L26-.L28)/2
 352 0050 1E       		.byte	(.L26-.L28)/2
 353 0051 1E       		.byte	(.L26-.L28)/2
 354 0052 1B       		.byte	(.L31-.L28)/2
 355 0053 00       		.p2align 1
 356              	.L27:
  24:edgeSensorApp.c ****                     DelayBased180Turn();
 357              		.loc 1 24 0
 358 0054 FFF7FEFF 		bl	DelayBased180Turn
 359              	.LVL12:
  25:edgeSensorApp.c ****                 break;
 360              		.loc 1 25 0
 361 0058 0CE0     		b	.L32
 362              	.L29:
  27:edgeSensorApp.c ****                     DelayBased90Turn(1);
 363              		.loc 1 27 0
 364 005a 0120     		movs	r0, #1
 365 005c FFF7FEFF 		bl	DelayBased90Turn
 366              	.LVL13:
  28:edgeSensorApp.c ****                 break;
 367              		.loc 1 28 0
 368 0060 08E0     		b	.L32
 369              	.L30:
  30:edgeSensorApp.c ****                     DelayBased90Turn(2);
 370              		.loc 1 30 0
 371 0062 0220     		movs	r0, #2
 372 0064 FFF7FEFF 		bl	DelayBased90Turn
 373              	.LVL14:
  31:edgeSensorApp.c ****                 break;
 374              		.loc 1 31 0
 375 0068 04E0     		b	.L32
 376              	.L31:
  33:edgeSensorApp.c ****                     DelayBased180Turn();
 377              		.loc 1 33 0
 378 006a FFF7FEFF 		bl	DelayBased180Turn
 379              	.LVL15:
  34:edgeSensorApp.c ****                 break;
 380              		.loc 1 34 0
 381 006e 01E0     		b	.L32
 382              	.L26:
  36:edgeSensorApp.c ****                     driveForwards();
 383              		.loc 1 36 0
 384 0070 FFF7FEFF 		bl	driveForwards
ARM GAS  C:\Users\LUCASI~1\AppData\Local\Temp\cc66tKMa.s 			page 10


 385              	.LVL16:
 386              	.L32:
  41:edgeSensorApp.c ****     getStatus();
 387              		.loc 1 41 0
 388 0074 FFF7FEFF 		bl	getStatus
 389              	.LVL17:
  43:edgeSensorApp.c ****     pulseCounter_ReadStatusRegister();
 390              		.loc 1 43 0
 391 0078 FFF7FEFF 		bl	pulseCounter_ReadStatusRegister
 392              	.LVL18:
  44:edgeSensorApp.c ****     triggerPWM_Start();
 393              		.loc 1 44 0
 394 007c FFF7FEFF 		bl	triggerPWM_Start
 395              	.LVL19:
 396 0080 08BD     		pop	{r3, pc}
 397              	.L35:
 398 0082 00BF     		.align	2
 399              	.L34:
 400 0084 00000000 		.word	pulseWidth
 401 0088 00000000 		.word	time_us
 402 008c 00000000 		.word	.LANCHOR0
 403              		.cfi_endproc
 404              	.LFE64:
 405              		.size	pulseInt_handler, .-pulseInt_handler
 406              		.global	status
 407              		.global	e4
 408              		.global	e3
 409              		.global	e2
 410              		.global	e1
 411              		.comm	time_us,4,4
 412              		.comm	pulseWidth,4,4
 413              		.comm	randturn,4,4
 414              		.comm	randState,4,4
 415              		.comm	state,4,4
 416              		.comm	difficulty,4,4
 417              		.comm	buffer,250,4
 418              		.bss
 419              		.align	2
 420              		.set	.LANCHOR0,. + 0
 421              		.type	e1, %object
 422              		.size	e1, 4
 423              	e1:
 424 0000 00000000 		.space	4
 425              		.type	e2, %object
 426              		.size	e2, 4
 427              	e2:
 428 0004 00000000 		.space	4
 429              		.type	e3, %object
 430              		.size	e3, 4
 431              	e3:
 432 0008 00000000 		.space	4
 433              		.type	e4, %object
 434              		.size	e4, 4
 435              	e4:
 436 000c 00000000 		.space	4
 437              		.type	status, %object
 438              		.size	status, 4
ARM GAS  C:\Users\LUCASI~1\AppData\Local\Temp\cc66tKMa.s 			page 11


 439              	status:
 440 0010 00000000 		.space	4
 441              		.text
 442              	.Letext0:
 443              		.file 2 "c:\\program files (x86)\\cypress\\psoc creator\\4.2\\psoc creator\\import\\gnu\\arm\\5.4.
 444              		.file 3 "c:\\program files (x86)\\cypress\\psoc creator\\4.2\\psoc creator\\import\\gnu\\arm\\5.4.
 445              		.file 4 "Generated_Source\\PSoC5/core_cm3.h"
 446              		.file 5 "MotorApp.h"
 447              		.file 6 "Generated_Source\\PSoC5/CLK_500kHz.h"
 448              		.file 7 "Generated_Source\\PSoC5/CLK_24MHz.h"
 449              		.file 8 "Generated_Source\\PSoC5/triggerPWM.h"
 450              		.file 9 "Generated_Source\\PSoC5/pulseCounter.h"
 451              		.file 10 "Generated_Source\\PSoC5/pulseInt.h"
 452              		.file 11 "Generated_Source\\PSoC5/echoInt_1.h"
 453              		.file 12 "Generated_Source\\PSoC5/echoInt_2.h"
 454              		.file 13 "Generated_Source\\PSoC5/echoInt_3.h"
 455              		.file 14 "Generated_Source\\PSoC5/echoInt_4.h"