ARM GAS  C:\Users\LUCASI~1\AppData\Local\Temp\ccDDg4te.s 			page 1


   1              		.syntax unified
   2              		.cpu cortex-m3
   3              		.fpu softvfp
   4              		.eabi_attribute 20, 1
   5              		.eabi_attribute 21, 1
   6              		.eabi_attribute 23, 3
   7              		.eabi_attribute 24, 1
   8              		.eabi_attribute 25, 1
   9              		.eabi_attribute 26, 1
  10              		.eabi_attribute 30, 1
  11              		.eabi_attribute 34, 1
  12              		.eabi_attribute 18, 4
  13              		.thumb
  14              		.syntax unified
  15              		.file	"main.c"
  16              		.text
  17              	.Ltext0:
  18              		.cfi_sections	.debug_frame
  19              		.section	.text.ball_int_handler,"ax",%progbits
  20              		.align	2
  21              		.global	ball_int_handler
  22              		.thumb
  23              		.thumb_func
  24              		.type	ball_int_handler, %function
  25              	ball_int_handler:
  26              	.LFB65:
  27              		.file 1 "main.c"
   1:main.c        **** #include "edgeSensorApp.h"
   2:main.c        **** #include "project.h"
   3:main.c        **** #include "MotorApp.h"
   4:main.c        **** #include "rpiCommunication.h"
   5:main.c        **** #include "scale.h"
   6:main.c        **** #include "waitingState.h"
   7:main.c        **** #include "soundApp.h"
   8:main.c        **** 
   9:main.c        **** CY_ISR_PROTO(ball_int_handler);
  10:main.c        **** 
  11:main.c        **** int main(void)
  12:main.c        **** {
  13:main.c        ****     running_ = 0;
  14:main.c        ****     rpiRunning = 1;
  15:main.c        ****     CyGlobalIntEnable; //init global int
  16:main.c        ****     ball_int_StartEx(ball_int_handler);
  17:main.c        ****     //init drivers
  18:main.c        ****     edgeSensorInit();
  19:main.c        ****     rpiInit();
  20:main.c        ****     soundInit();
  21:main.c        ****     
  22:main.c        ****     ADC_SAR_1_Start();  //initialisere ADC'en.
  23:main.c        ****     
  24:main.c        ****     ADC_SAR_1_StartConvert();   //Starter ADC konverteringen
  25:main.c        ****     
  26:main.c        ****     
  27:main.c        ****     state = 3;
  28:main.c        ****     
  29:main.c        ****     for(;;)
  30:main.c        ****     {  
ARM GAS  C:\Users\LUCASI~1\AppData\Local\Temp\ccDDg4te.s 			page 2


  31:main.c        ****         while(running_ == 1)
  32:main.c        ****         {
  33:main.c        ****             speedSelect();
  34:main.c        ****             CyDelay(250);  // + timeDificulty[difficulty]
  35:main.c        ****         }
  36:main.c        ****         while(running_ == 0)
  37:main.c        ****         {
  38:main.c        ****             waitingStateStart();  
  39:main.c        ****         }
  40:main.c        ****     }
  41:main.c        **** }
  42:main.c        **** 
  43:main.c        **** CY_ISR(ball_int_handler)
  44:main.c        **** {
  28              		.loc 1 44 0
  29              		.cfi_startproc
  30              		@ args = 0, pretend = 0, frame = 0
  31              		@ frame_needed = 0, uses_anonymous_args = 0
  32 0000 10B5     		push	{r4, lr}
  33              		.cfi_def_cfa_offset 8
  34              		.cfi_offset 4, -8
  35              		.cfi_offset 14, -4
  45:main.c        ****     running_ = 0;
  36              		.loc 1 45 0
  37 0002 084C     		ldr	r4, .L3
  38 0004 0023     		movs	r3, #0
  39 0006 2360     		str	r3, [r4]
  46:main.c        ****     
  47:main.c        ****     motorStop();
  40              		.loc 1 47 0
  41 0008 FFF7FEFF 		bl	motorStop
  42              	.LVL0:
  48:main.c        ****     sendToSOMO(3);
  43              		.loc 1 48 0
  44 000c 0320     		movs	r0, #3
  45 000e FFF7FEFF 		bl	sendToSOMO
  46              	.LVL1:
  49:main.c        ****     CyDelay(2000);
  47              		.loc 1 49 0
  48 0012 4FF4FA60 		mov	r0, #2000
  49 0016 FFF7FEFF 		bl	CyDelay
  50              	.LVL2:
  50:main.c        ****     
  51:main.c        ****     waitingStateDrink();
  51              		.loc 1 51 0
  52 001a FFF7FEFF 		bl	waitingStateDrink
  53              	.LVL3:
  52:main.c        ****     
  53:main.c        ****     running_ = 1;
  54              		.loc 1 53 0
  55 001e 0123     		movs	r3, #1
  56 0020 2360     		str	r3, [r4]
  57 0022 10BD     		pop	{r4, pc}
  58              	.L4:
  59              		.align	2
  60              	.L3:
  61 0024 00000000 		.word	running_
ARM GAS  C:\Users\LUCASI~1\AppData\Local\Temp\ccDDg4te.s 			page 3


  62              		.cfi_endproc
  63              	.LFE65:
  64              		.size	ball_int_handler, .-ball_int_handler
  65              		.section	.text.main,"ax",%progbits
  66              		.align	2
  67              		.global	main
  68              		.thumb
  69              		.thumb_func
  70              		.type	main, %function
  71              	main:
  72              	.LFB64:
  12:main.c        ****     running_ = 0;
  73              		.loc 1 12 0
  74              		.cfi_startproc
  75              		@ Volatile: function does not return.
  76              		@ args = 0, pretend = 0, frame = 0
  77              		@ frame_needed = 0, uses_anonymous_args = 0
  78 0000 08B5     		push	{r3, lr}
  79              		.cfi_def_cfa_offset 8
  80              		.cfi_offset 3, -8
  81              		.cfi_offset 14, -4
  13:main.c        ****     rpiRunning = 1;
  82              		.loc 1 13 0
  83 0002 0022     		movs	r2, #0
  84 0004 134B     		ldr	r3, .L12
  85 0006 1A60     		str	r2, [r3]
  14:main.c        ****     CyGlobalIntEnable; //init global int
  86              		.loc 1 14 0
  87 0008 0122     		movs	r2, #1
  88 000a 134B     		ldr	r3, .L12+4
  89 000c 1A60     		str	r2, [r3]
  15:main.c        ****     ball_int_StartEx(ball_int_handler);
  90              		.loc 1 15 0
  91              		.syntax unified
  92              	@ 15 "main.c" 1
  93 000e 62B6     		CPSIE   i
  94              	@ 0 "" 2
  16:main.c        ****     //init drivers
  95              		.loc 1 16 0
  96              		.thumb
  97              		.syntax unified
  98 0010 1248     		ldr	r0, .L12+8
  99 0012 FFF7FEFF 		bl	ball_int_StartEx
 100              	.LVL4:
  18:main.c        ****     rpiInit();
 101              		.loc 1 18 0
 102 0016 FFF7FEFF 		bl	edgeSensorInit
 103              	.LVL5:
  19:main.c        ****     soundInit();
 104              		.loc 1 19 0
 105 001a FFF7FEFF 		bl	rpiInit
 106              	.LVL6:
  20:main.c        ****     
 107              		.loc 1 20 0
 108 001e FFF7FEFF 		bl	soundInit
 109              	.LVL7:
  22:main.c        ****     
ARM GAS  C:\Users\LUCASI~1\AppData\Local\Temp\ccDDg4te.s 			page 4


 110              		.loc 1 22 0
 111 0022 FFF7FEFF 		bl	ADC_SAR_1_Start
 112              	.LVL8:
  24:main.c        ****     
 113              		.loc 1 24 0
 114 0026 FFF7FEFF 		bl	ADC_SAR_1_StartConvert
 115              	.LVL9:
  27:main.c        ****     
 116              		.loc 1 27 0
 117 002a 0322     		movs	r2, #3
 118 002c 0C4B     		ldr	r3, .L12+12
 119 002e 1A60     		str	r2, [r3]
 120 0030 04E0     		b	.L6
 121              	.L7:
  33:main.c        ****             CyDelay(250);  // + timeDificulty[difficulty]
 122              		.loc 1 33 0
 123 0032 FFF7FEFF 		bl	speedSelect
 124              	.LVL10:
  34:main.c        ****         }
 125              		.loc 1 34 0
 126 0036 FA20     		movs	r0, #250
 127 0038 FFF7FEFF 		bl	CyDelay
 128              	.LVL11:
 129              	.L6:
  31:main.c        ****         {
 130              		.loc 1 31 0
 131 003c 054B     		ldr	r3, .L12
 132 003e 1B68     		ldr	r3, [r3]
 133 0040 012B     		cmp	r3, #1
 134 0042 02D1     		bne	.L8
 135 0044 F5E7     		b	.L7
 136              	.L9:
  38:main.c        ****         }
 137              		.loc 1 38 0
 138 0046 FFF7FEFF 		bl	waitingStateStart
 139              	.LVL12:
 140              	.L8:
  36:main.c        ****         {
 141              		.loc 1 36 0
 142 004a 024B     		ldr	r3, .L12
 143 004c 1B68     		ldr	r3, [r3]
 144 004e 002B     		cmp	r3, #0
 145 0050 F9D0     		beq	.L9
 146 0052 F3E7     		b	.L6
 147              	.L13:
 148              		.align	2
 149              	.L12:
 150 0054 00000000 		.word	running_
 151 0058 00000000 		.word	rpiRunning
 152 005c 00000000 		.word	ball_int_handler
 153 0060 00000000 		.word	state
 154              		.cfi_endproc
 155              	.LFE64:
 156              		.size	main, .-main
 157              		.comm	running_,4,4
 158              		.comm	count_not_high,2,2
 159              		.comm	count_not_low,2,2
ARM GAS  C:\Users\LUCASI~1\AppData\Local\Temp\ccDDg4te.s 			page 5


 160              		.comm	count_ok,2,2
 161              		.comm	measurement,2,2
 162              		.comm	uartBuffer,256,4
 163              		.comm	result,2,2
 164              		.comm	rpiRunning,4,4
 165              		.comm	randturn,4,4
 166              		.comm	randState,4,4
 167              		.comm	state,4,4
 168              		.comm	difficulty,4,4
 169              		.comm	buffer,250,4
 170              		.text
 171              	.Letext0:
 172              		.file 2 "c:\\program files (x86)\\cypress\\psoc creator\\4.2\\psoc creator\\import\\gnu\\arm\\5.4.
 173              		.file 3 "c:\\program files (x86)\\cypress\\psoc creator\\4.2\\psoc creator\\import\\gnu\\arm\\5.4.
 174              		.file 4 "Generated_Source\\PSoC5/core_cm3.h"
 175              		.file 5 "MotorApp.h"
 176              		.file 6 "rpiCommunication.h"
 177              		.file 7 "scale.h"
 178              		.file 8 "waitingState.h"
 179              		.file 9 "soundApp.h"
 180              		.file 10 "Generated_Source\\PSoC5/CyLib.h"
 181              		.file 11 "Generated_Source\\PSoC5/ball_int.h"
 182              		.file 12 "edgeSensorApp.h"
 183              		.file 13 "Generated_Source\\PSoC5/ADC_SAR_1.h"