ARM GAS  C:\Users\LUCASI~1\AppData\Local\Temp\ccaGU6xS.s 			page 1


   1              		.syntax unified
   2              		.cpu cortex-m3
   3              		.fpu softvfp
   4              		.eabi_attribute 20, 1
   5              		.eabi_attribute 21, 1
   6              		.eabi_attribute 23, 3
   7              		.eabi_attribute 24, 1
   8              		.eabi_attribute 25, 1
   9              		.eabi_attribute 26, 1
  10              		.eabi_attribute 30, 1
  11              		.eabi_attribute 34, 1
  12              		.eabi_attribute 18, 4
  13              		.thumb
  14              		.syntax unified
  15              		.file	"rpiCommunication.c"
  16              		.text
  17              	.Ltext0:
  18              		.cfi_sections	.debug_frame
  19              		.section	.text.score,"ax",%progbits
  20              		.align	2
  21              		.global	score
  22              		.thumb
  23              		.thumb_func
  24              		.type	score, %function
  25              	score:
  26              	.LFB65:
  27              		.file 1 "rpiCommunication.c"
   1:rpiCommunication.c **** #include "rpiCommunication.h"
   2:rpiCommunication.c **** #include "soundApp.h"
   3:rpiCommunication.c **** #include "project.h"
   4:rpiCommunication.c **** 
   5:rpiCommunication.c **** CY_ISR_PROTO(isr_rpi_start)
   6:rpiCommunication.c **** {
   7:rpiCommunication.c ****    rpiStart();    
   8:rpiCommunication.c **** }
   9:rpiCommunication.c **** CY_ISR_PROTO(isr_rpi_stop)
  10:rpiCommunication.c **** {
  11:rpiCommunication.c ****     rpiStop();
  12:rpiCommunication.c ****     sendToSOMO(2);
  13:rpiCommunication.c **** }
  14:rpiCommunication.c **** 
  15:rpiCommunication.c **** void score()
  16:rpiCommunication.c **** {
  28              		.loc 1 16 0
  29              		.cfi_startproc
  30              		@ args = 0, pretend = 0, frame = 0
  31              		@ frame_needed = 0, uses_anonymous_args = 0
  32 0000 08B5     		push	{r3, lr}
  33              		.cfi_def_cfa_offset 8
  34              		.cfi_offset 3, -8
  35              		.cfi_offset 14, -4
  17:rpiCommunication.c ****     Pin_score_Write(0);
  36              		.loc 1 17 0
  37 0002 0020     		movs	r0, #0
  38 0004 FFF7FEFF 		bl	Pin_score_Write
  39              	.LVL0:
  18:rpiCommunication.c ****     CyDelay(2000);
ARM GAS  C:\Users\LUCASI~1\AppData\Local\Temp\ccaGU6xS.s 			page 2


  40              		.loc 1 18 0
  41 0008 4FF4FA60 		mov	r0, #2000
  42 000c FFF7FEFF 		bl	CyDelay
  43              	.LVL1:
  19:rpiCommunication.c ****     Pin_score_Write(1);
  44              		.loc 1 19 0
  45 0010 0120     		movs	r0, #1
  46 0012 FFF7FEFF 		bl	Pin_score_Write
  47              	.LVL2:
  48 0016 08BD     		pop	{r3, pc}
  49              		.cfi_endproc
  50              	.LFE65:
  51              		.size	score, .-score
  52              		.section	.text.rpiStart,"ax",%progbits
  53              		.align	2
  54              		.global	rpiStart
  55              		.thumb
  56              		.thumb_func
  57              		.type	rpiStart, %function
  58              	rpiStart:
  59              	.LFB66:
  20:rpiCommunication.c **** }
  21:rpiCommunication.c **** 
  22:rpiCommunication.c **** void rpiStart()
  23:rpiCommunication.c **** {
  60              		.loc 1 23 0
  61              		.cfi_startproc
  62              		@ args = 0, pretend = 0, frame = 0
  63              		@ frame_needed = 0, uses_anonymous_args = 0
  64              		@ link register save eliminated.
  24:rpiCommunication.c ****     rpiRunning = 1;
  65              		.loc 1 24 0
  66 0000 0122     		movs	r2, #1
  67 0002 014B     		ldr	r3, .L4
  68 0004 1A60     		str	r2, [r3]
  69 0006 7047     		bx	lr
  70              	.L5:
  71              		.align	2
  72              	.L4:
  73 0008 00000000 		.word	rpiRunning
  74              		.cfi_endproc
  75              	.LFE66:
  76              		.size	rpiStart, .-rpiStart
  77              		.section	.text.isr_rpi_start,"ax",%progbits
  78              		.align	2
  79              		.global	isr_rpi_start
  80              		.thumb
  81              		.thumb_func
  82              		.type	isr_rpi_start, %function
  83              	isr_rpi_start:
  84              	.LFB63:
   6:rpiCommunication.c ****    rpiStart();    
  85              		.loc 1 6 0
  86              		.cfi_startproc
  87              		@ args = 0, pretend = 0, frame = 0
  88              		@ frame_needed = 0, uses_anonymous_args = 0
  89 0000 08B5     		push	{r3, lr}
ARM GAS  C:\Users\LUCASI~1\AppData\Local\Temp\ccaGU6xS.s 			page 3


  90              		.cfi_def_cfa_offset 8
  91              		.cfi_offset 3, -8
  92              		.cfi_offset 14, -4
   7:rpiCommunication.c **** }
  93              		.loc 1 7 0
  94 0002 FFF7FEFF 		bl	rpiStart
  95              	.LVL3:
  96 0006 08BD     		pop	{r3, pc}
  97              		.cfi_endproc
  98              	.LFE63:
  99              		.size	isr_rpi_start, .-isr_rpi_start
 100              		.section	.text.rpiStop,"ax",%progbits
 101              		.align	2
 102              		.global	rpiStop
 103              		.thumb
 104              		.thumb_func
 105              		.type	rpiStop, %function
 106              	rpiStop:
 107              	.LFB67:
  25:rpiCommunication.c **** }
  26:rpiCommunication.c **** 
  27:rpiCommunication.c **** void rpiStop()
  28:rpiCommunication.c **** {
 108              		.loc 1 28 0
 109              		.cfi_startproc
 110              		@ args = 0, pretend = 0, frame = 0
 111              		@ frame_needed = 0, uses_anonymous_args = 0
 112              		@ link register save eliminated.
  29:rpiCommunication.c ****     rpiRunning = 0;
 113              		.loc 1 29 0
 114 0000 0022     		movs	r2, #0
 115 0002 014B     		ldr	r3, .L9
 116 0004 1A60     		str	r2, [r3]
 117 0006 7047     		bx	lr
 118              	.L10:
 119              		.align	2
 120              	.L9:
 121 0008 00000000 		.word	rpiRunning
 122              		.cfi_endproc
 123              	.LFE67:
 124              		.size	rpiStop, .-rpiStop
 125              		.section	.text.isr_rpi_stop,"ax",%progbits
 126              		.align	2
 127              		.global	isr_rpi_stop
 128              		.thumb
 129              		.thumb_func
 130              		.type	isr_rpi_stop, %function
 131              	isr_rpi_stop:
 132              	.LFB64:
  10:rpiCommunication.c ****     rpiStop();
 133              		.loc 1 10 0
 134              		.cfi_startproc
 135              		@ args = 0, pretend = 0, frame = 0
 136              		@ frame_needed = 0, uses_anonymous_args = 0
 137 0000 08B5     		push	{r3, lr}
 138              		.cfi_def_cfa_offset 8
 139              		.cfi_offset 3, -8
ARM GAS  C:\Users\LUCASI~1\AppData\Local\Temp\ccaGU6xS.s 			page 4


 140              		.cfi_offset 14, -4
  11:rpiCommunication.c ****     sendToSOMO(2);
 141              		.loc 1 11 0
 142 0002 FFF7FEFF 		bl	rpiStop
 143              	.LVL4:
  12:rpiCommunication.c **** }
 144              		.loc 1 12 0
 145 0006 0220     		movs	r0, #2
 146 0008 FFF7FEFF 		bl	sendToSOMO
 147              	.LVL5:
 148 000c 08BD     		pop	{r3, pc}
 149              		.cfi_endproc
 150              	.LFE64:
 151              		.size	isr_rpi_stop, .-isr_rpi_stop
 152 000e 00BF     		.section	.text.rpiInit,"ax",%progbits
 153              		.align	2
 154              		.global	rpiInit
 155              		.thumb
 156              		.thumb_func
 157              		.type	rpiInit, %function
 158              	rpiInit:
 159              	.LFB68:
  30:rpiCommunication.c ****     
  31:rpiCommunication.c **** }
  32:rpiCommunication.c **** 
  33:rpiCommunication.c **** void rpiInit()
  34:rpiCommunication.c **** {
 160              		.loc 1 34 0
 161              		.cfi_startproc
 162              		@ args = 0, pretend = 0, frame = 0
 163              		@ frame_needed = 0, uses_anonymous_args = 0
 164 0000 08B5     		push	{r3, lr}
 165              		.cfi_def_cfa_offset 8
 166              		.cfi_offset 3, -8
 167              		.cfi_offset 14, -4
  35:rpiCommunication.c ****     Pin_score_Write(1);
 168              		.loc 1 35 0
 169 0002 0120     		movs	r0, #1
 170 0004 FFF7FEFF 		bl	Pin_score_Write
 171              	.LVL6:
 172 0008 08BD     		pop	{r3, pc}
 173              		.cfi_endproc
 174              	.LFE68:
 175              		.size	rpiInit, .-rpiInit
 176              		.comm	rpiRunning,4,4
 177 000a 00BF     		.text
 178              	.Letext0:
 179              		.file 2 "c:\\program files (x86)\\cypress\\psoc creator\\4.2\\psoc creator\\import\\gnu\\arm\\5.4.
 180              		.file 3 "c:\\program files (x86)\\cypress\\psoc creator\\4.2\\psoc creator\\import\\gnu\\arm\\5.4.
 181              		.file 4 "Generated_Source\\PSoC5/core_cm3.h"
 182              		.file 5 "rpiCommunication.h"
 183              		.file 6 "Generated_Source\\PSoC5/Pin_score.h"
 184              		.file 7 "Generated_Source\\PSoC5/CyLib.h"
 185              		.file 8 "soundApp.h"