ARM GAS  C:\Users\LUCASI~1\AppData\Local\Temp\ccPnmf4M.s 			page 1


   1              		.syntax unified
   2              		.cpu cortex-m3
   3              		.fpu softvfp
   4              		.eabi_attribute 20, 1
   5              		.eabi_attribute 21, 1
   6              		.eabi_attribute 23, 3
   7              		.eabi_attribute 24, 1
   8              		.eabi_attribute 25, 1
   9              		.eabi_attribute 26, 1
  10              		.eabi_attribute 30, 1
  11              		.eabi_attribute 34, 1
  12              		.eabi_attribute 18, 4
  13              		.thumb
  14              		.syntax unified
  15              		.file	"scale.c"
  16              		.text
  17              	.Ltext0:
  18              		.cfi_sections	.debug_frame
  19              		.section	.text.readScaleStatus,"ax",%progbits
  20              		.align	2
  21              		.global	readScaleStatus
  22              		.thumb
  23              		.thumb_func
  24              		.type	readScaleStatus, %function
  25              	readScaleStatus:
  26              	.LFB63:
  27              		.file 1 "scale.c"
   1:scale.c       **** #include "scale.h"
   2:scale.c       **** 
   3:scale.c       **** int readScaleStatus(void){
  28              		.loc 1 3 0
  29              		.cfi_startproc
  30              		@ args = 0, pretend = 0, frame = 0
  31              		@ frame_needed = 0, uses_anonymous_args = 0
  32 0000 70B5     		push	{r4, r5, r6, lr}
  33              		.cfi_def_cfa_offset 16
  34              		.cfi_offset 4, -16
  35              		.cfi_offset 5, -12
  36              		.cfi_offset 6, -8
  37              		.cfi_offset 14, -4
  38              	.LVL0:
  39              	.LBB2:
   4:scale.c       ****     
   5:scale.c       ****     int status_scale = 0;
   6:scale.c       ****     uint8 tmp_result = 0;
   7:scale.c       ****     
   8:scale.c       ****     for(int i = 0; i < 10; i++)
  40              		.loc 1 8 0
  41 0002 0026     		movs	r6, #0
  42              	.LBE2:
   6:scale.c       ****     
  43              		.loc 1 6 0
  44 0004 3446     		mov	r4, r6
   5:scale.c       ****     uint8 tmp_result = 0;
  45              		.loc 1 5 0
  46 0006 3546     		mov	r5, r6
  47              	.LBB5:
ARM GAS  C:\Users\LUCASI~1\AppData\Local\Temp\ccPnmf4M.s 			page 2


  48              		.loc 1 8 0
  49 0008 58E0     		b	.L2
  50              	.LVL1:
  51              	.L9:
   9:scale.c       ****     {
  10:scale.c       ****         if (ADC_SAR_1_IsEndConversion(ADC_SAR_1_WAIT_FOR_RESULT))   //Venter på et resultat.
  52              		.loc 1 10 0
  53 000a 0020     		movs	r0, #0
  54 000c FFF7FEFF 		bl	ADC_SAR_1_IsEndConversion
  55              	.LVL2:
  56 0010 48B9     		cbnz	r0, .L10
  57 0012 52E0     		b	.L4
  58              	.LVL3:
  59              	.L5:
  60              	.LBB3:
  11:scale.c       ****         {
  12:scale.c       ****             
  13:scale.c       ****             for (uint32_t i = 0; i < 10; i++){
  14:scale.c       ****                              
  15:scale.c       ****             tmp_result += ADC_SAR_1_GetResult16();
  61              		.loc 1 15 0 discriminator 3
  62 0014 FFF7FEFF 		bl	ADC_SAR_1_GetResult16
  63              	.LVL4:
  64 0018 2044     		add	r0, r0, r4
  65 001a C4B2     		uxtb	r4, r0
  66              	.LVL5:
  16:scale.c       ****             
  17:scale.c       ****             CyDelay(10);
  67              		.loc 1 17 0 discriminator 3
  68 001c 0A20     		movs	r0, #10
  69 001e FFF7FEFF 		bl	CyDelay
  70              	.LVL6:
  13:scale.c       ****                              
  71              		.loc 1 13 0 discriminator 3
  72 0022 0135     		adds	r5, r5, #1
  73              	.LVL7:
  74 0024 00E0     		b	.L3
  75              	.LVL8:
  76              	.L10:
  77              	.LBE3:
  78 0026 0025     		movs	r5, #0
  79              	.LVL9:
  80              	.L3:
  81              	.LBB4:
  13:scale.c       ****                              
  82              		.loc 1 13 0 is_stmt 0 discriminator 1
  83 0028 092D     		cmp	r5, #9
  84 002a F3D9     		bls	.L5
  85              	.LBE4:
  18:scale.c       ****             
  19:scale.c       ****             }
  20:scale.c       ****                        
  21:scale.c       ****             measurement++;
  86              		.loc 1 21 0 is_stmt 1
  87 002c 254B     		ldr	r3, .L16
  88 002e 1A88     		ldrh	r2, [r3]
  89 0030 0132     		adds	r2, r2, #1
ARM GAS  C:\Users\LUCASI~1\AppData\Local\Temp\ccPnmf4M.s 			page 3


  90 0032 92B2     		uxth	r2, r2
  91 0034 1A80     		strh	r2, [r3]	@ movhi
  22:scale.c       ****             
  23:scale.c       ****             result = tmp_result/10;
  92              		.loc 1 23 0
  93 0036 244B     		ldr	r3, .L16+4
  94 0038 A3FB0413 		umull	r1, r3, r3, r4
  95 003c C3F3C703 		ubfx	r3, r3, #3, #8
  96 0040 2249     		ldr	r1, .L16+8
  97 0042 0B80     		strh	r3, [r1]	@ movhi
  98              	.LVL10:
  24:scale.c       ****             
  25:scale.c       ****             status_scale = 0;
  26:scale.c       ****             
  27:scale.c       ****             if(result > 160)
  99              		.loc 1 27 0
 100 0044 A02B     		cmp	r3, #160
 101 0046 09D9     		bls	.L6
  28:scale.c       ****             {
  29:scale.c       ****                 count_not_low++;
 102              		.loc 1 29 0
 103 0048 2149     		ldr	r1, .L16+12
 104 004a 0B88     		ldrh	r3, [r1]
 105 004c 0133     		adds	r3, r3, #1
 106 004e 9BB2     		uxth	r3, r3
 107 0050 0B80     		strh	r3, [r1]	@ movhi
  30:scale.c       ****                 if (count_not_low == 5)
 108              		.loc 1 30 0
 109 0052 052B     		cmp	r3, #5
 110 0054 1FD1     		bne	.L11
  31:scale.c       ****                 {
  32:scale.c       ****                     
  33:scale.c       ****                     status_scale = 0;
  34:scale.c       ****                     count_not_low = 0;
 111              		.loc 1 34 0
 112 0056 0025     		movs	r5, #0
 113              	.LVL11:
 114 0058 0D80     		strh	r5, [r1]	@ movhi
 115 005a 23E0     		b	.L7
 116              	.LVL12:
 117              	.L6:
  35:scale.c       ****                 }
  36:scale.c       ****             }
  37:scale.c       ****             else if(result <= 160 && result >= 70)
 118              		.loc 1 37 0
 119 005c A3F14601 		sub	r1, r3, #70
 120 0060 89B2     		uxth	r1, r1
 121 0062 5A29     		cmp	r1, #90
 122 0064 0BD8     		bhi	.L8
  38:scale.c       ****             {
  39:scale.c       ****                 count_ok++;
 123              		.loc 1 39 0
 124 0066 1B49     		ldr	r1, .L16+16
 125 0068 0B88     		ldrh	r3, [r1]
 126 006a 0133     		adds	r3, r3, #1
 127 006c 9BB2     		uxth	r3, r3
 128 006e 0B80     		strh	r3, [r1]	@ movhi
ARM GAS  C:\Users\LUCASI~1\AppData\Local\Temp\ccPnmf4M.s 			page 4


  40:scale.c       ****                 if (count_ok == 5)
 129              		.loc 1 40 0
 130 0070 052B     		cmp	r3, #5
 131 0072 12D1     		bne	.L12
 132              	.LVL13:
  41:scale.c       ****                 {
  42:scale.c       ****                   
  43:scale.c       ****                     status_scale = 1;
  44:scale.c       ****                     count_ok = 0;
 133              		.loc 1 44 0
 134 0074 0021     		movs	r1, #0
 135 0076 174B     		ldr	r3, .L16+16
 136 0078 1980     		strh	r1, [r3]	@ movhi
  43:scale.c       ****                     count_ok = 0;
 137              		.loc 1 43 0
 138 007a 0125     		movs	r5, #1
 139              	.LVL14:
 140 007c 12E0     		b	.L7
 141              	.LVL15:
 142              	.L8:
  45:scale.c       ****                 }
  46:scale.c       ****             }
  47:scale.c       ****             else if(result < 70)
 143              		.loc 1 47 0
 144 007e 452B     		cmp	r3, #69
 145 0080 0DD8     		bhi	.L13
  48:scale.c       ****             {
  49:scale.c       ****                 count_not_high++;
 146              		.loc 1 49 0
 147 0082 1549     		ldr	r1, .L16+20
 148 0084 0B88     		ldrh	r3, [r1]
 149 0086 0133     		adds	r3, r3, #1
 150 0088 9BB2     		uxth	r3, r3
 151 008a 0B80     		strh	r3, [r1]	@ movhi
  50:scale.c       ****                 if (count_not_high == 5)
 152              		.loc 1 50 0
 153 008c 052B     		cmp	r3, #5
 154 008e 08D1     		bne	.L14
  51:scale.c       ****                 {
  52:scale.c       ****                     
  53:scale.c       ****                     status_scale = 0;
  54:scale.c       ****                     count_not_high = 0;
 155              		.loc 1 54 0
 156 0090 0025     		movs	r5, #0
 157              	.LVL16:
 158 0092 0D80     		strh	r5, [r1]	@ movhi
 159 0094 06E0     		b	.L7
 160              	.LVL17:
 161              	.L11:
  25:scale.c       ****             
 162              		.loc 1 25 0
 163 0096 0025     		movs	r5, #0
 164              	.LVL18:
 165 0098 04E0     		b	.L7
 166              	.LVL19:
 167              	.L12:
 168 009a 0025     		movs	r5, #0
ARM GAS  C:\Users\LUCASI~1\AppData\Local\Temp\ccPnmf4M.s 			page 5


 169              	.LVL20:
 170 009c 02E0     		b	.L7
 171              	.LVL21:
 172              	.L13:
 173 009e 0025     		movs	r5, #0
 174              	.LVL22:
 175 00a0 00E0     		b	.L7
 176              	.LVL23:
 177              	.L14:
 178 00a2 0025     		movs	r5, #0
 179              	.LVL24:
 180              	.L7:
  55:scale.c       ****                 }
  56:scale.c       ****             }
  57:scale.c       ****             
  58:scale.c       ****            
  59:scale.c       ****             
  60:scale.c       ****             if (measurement == 10)
 181              		.loc 1 60 0
 182 00a4 0A2A     		cmp	r2, #10
 183 00a6 08D1     		bne	.L4
  61:scale.c       ****             {
  62:scale.c       ****                 measurement = 0;
 184              		.loc 1 62 0
 185 00a8 0023     		movs	r3, #0
 186 00aa 064A     		ldr	r2, .L16
 187 00ac 1380     		strh	r3, [r2]	@ movhi
  63:scale.c       ****                 count_not_high = 0;
 188              		.loc 1 63 0
 189 00ae 0A4A     		ldr	r2, .L16+20
 190 00b0 1380     		strh	r3, [r2]	@ movhi
  64:scale.c       ****                 count_not_low = 0;
 191              		.loc 1 64 0
 192 00b2 074A     		ldr	r2, .L16+12
 193 00b4 1380     		strh	r3, [r2]	@ movhi
  65:scale.c       ****                 count_ok = 0;
 194              		.loc 1 65 0
 195 00b6 074A     		ldr	r2, .L16+16
 196 00b8 1380     		strh	r3, [r2]	@ movhi
 197              	.L4:
   8:scale.c       ****     {
 198              		.loc 1 8 0 discriminator 2
 199 00ba 0136     		adds	r6, r6, #1
 200              	.LVL25:
 201              	.L2:
   8:scale.c       ****     {
 202              		.loc 1 8 0 is_stmt 0 discriminator 1
 203 00bc 092E     		cmp	r6, #9
 204 00be A4DD     		ble	.L9
 205              	.LBE5:
  66:scale.c       ****             }
  67:scale.c       ****         
  68:scale.c       ****         }
  69:scale.c       ****     }
  70:scale.c       ****     
  71:scale.c       ****     return status_scale;
  72:scale.c       **** }
ARM GAS  C:\Users\LUCASI~1\AppData\Local\Temp\ccPnmf4M.s 			page 6


 206              		.loc 1 72 0 is_stmt 1
 207 00c0 2846     		mov	r0, r5
 208 00c2 70BD     		pop	{r4, r5, r6, pc}
 209              	.LVL26:
 210              	.L17:
 211              		.align	2
 212              	.L16:
 213 00c4 00000000 		.word	measurement
 214 00c8 CDCCCCCC 		.word	-858993459
 215 00cc 00000000 		.word	result
 216 00d0 00000000 		.word	count_not_low
 217 00d4 00000000 		.word	count_ok
 218 00d8 00000000 		.word	count_not_high
 219              		.cfi_endproc
 220              	.LFE63:
 221              		.size	readScaleStatus, .-readScaleStatus
 222              		.comm	count_not_high,2,2
 223              		.comm	count_not_low,2,2
 224              		.comm	count_ok,2,2
 225              		.comm	measurement,2,2
 226              		.comm	uartBuffer,256,4
 227              		.comm	result,2,2
 228              		.text
 229              	.Letext0:
 230              		.file 2 "c:\\program files (x86)\\cypress\\psoc creator\\4.2\\psoc creator\\import\\gnu\\arm\\5.4.
 231              		.file 3 "c:\\program files (x86)\\cypress\\psoc creator\\4.2\\psoc creator\\import\\gnu\\arm\\5.4.
 232              		.file 4 "Generated_Source\\PSoC5/cytypes.h"
 233              		.file 5 "Generated_Source\\PSoC5/core_cm3.h"
 234              		.file 6 "scale.h"
 235              		.file 7 "Generated_Source\\PSoC5/ADC_SAR_1.h"
 236              		.file 8 "Generated_Source\\PSoC5/CyLib.h"